
Optional file libmchp_peripheral.a not found

Optional file libmchp_peripheral_32MX795F512L.a not found
Archive member included because of file (symbol)

c:/program files/microchip/xc32/v1.42/bin/bin/../../lib/gcc/pic32mx/4.8.3/../../../../pic32mx/lib\libpic32.a(memcpy.o)
                              build/default/debug/_ext/1128951024/queue.o (memcpy)
c:/program files/microchip/xc32/v1.42/bin/bin/../../lib/gcc/pic32mx/4.8.3/../../../../pic32mx/lib\libpic32.a(memset.o)
                              build/default/debug/_ext/568870469/drv_spi.o (memset)
c:/program files/microchip/xc32/v1.42/bin/bin/../../lib/gcc/pic32mx/4.8.3/../../../../pic32mx/lib\libpic32.a(default-bootstrap-exception-handler.o)
                              c:/program files/microchip/xc32/v1.42/bin/bin/../../lib/gcc/pic32mx/4.8.3/../../../../pic32mx/lib/./proc/32MX795F512L/crt0_mips32r2.o (_bootstrap_exception_handler)
c:/program files/microchip/xc32/v1.42/bin/bin/../../lib/gcc/pic32mx/4.8.3/../../../../pic32mx/lib\libpic32.a(default-on-reset.o)
                              c:/program files/microchip/xc32/v1.42/bin/bin/../../lib/gcc/pic32mx/4.8.3/../../../../pic32mx/lib/./proc/32MX795F512L/crt0_mips32r2.o (_on_reset)
c:/program files/microchip/xc32/v1.42/bin/bin/../../lib/gcc/pic32mx/4.8.3/../../../../pic32mx/lib\libpic32.a(default-on-bootstrap.o)
                              c:/program files/microchip/xc32/v1.42/bin/bin/../../lib/gcc/pic32mx/4.8.3/../../../../pic32mx/lib/./proc/32MX795F512L/crt0_mips32r2.o (_on_bootstrap)
c:/program files/microchip/xc32/v1.42/bin/bin/../../lib/gcc/pic32mx/4.8.3/../../../../pic32mx/lib\libpic32.a(default-nmi-handler.o)
                              c:/program files/microchip/xc32/v1.42/bin/bin/../../lib/gcc/pic32mx/4.8.3/../../../../pic32mx/lib/./proc/32MX795F512L/crt0_mips32r2.o (_nmi_handler)
c:/program files/microchip/xc32/v1.42/bin/bin/../../lib/gcc/pic32mx/4.8.3/../../../../pic32mx/lib\libpic32.a(general-exception.o)
                              c:/program files/microchip/xc32/v1.42/bin/bin/../../lib/gcc/pic32mx/4.8.3/../../../../pic32mx/lib/./proc/32MX795F512L/crt0_mips32r2.o (_general_exception_context)
c:/program files/microchip/xc32/v1.42/bin/bin/../../lib/gcc/pic32mx/4.8.3/../../../../pic32mx/lib\libpic32.a(vector0.o)
                              c:/program files/microchip/xc32/v1.42/bin/bin/../../lib/gcc/pic32mx/4.8.3/../../../../pic32mx/lib/./proc/32MX795F512L\default_isr_vectors.o (__vector_dispatch_0)
c:/program files/microchip/xc32/v1.42/bin/bin/../../lib/gcc/pic32mx/4.8.3/../../../../pic32mx/lib\libpic32.a(vector2.o)
                              c:/program files/microchip/xc32/v1.42/bin/bin/../../lib/gcc/pic32mx/4.8.3/../../../../pic32mx/lib/./proc/32MX795F512L\default_isr_vectors.o (__vector_dispatch_2)
c:/program files/microchip/xc32/v1.42/bin/bin/../../lib/gcc/pic32mx/4.8.3/../../../../pic32mx/lib\libpic32.a(vector3.o)
                              c:/program files/microchip/xc32/v1.42/bin/bin/../../lib/gcc/pic32mx/4.8.3/../../../../pic32mx/lib/./proc/32MX795F512L\default_isr_vectors.o (__vector_dispatch_3)
c:/program files/microchip/xc32/v1.42/bin/bin/../../lib/gcc/pic32mx/4.8.3/../../../../pic32mx/lib\libpic32.a(vector5.o)
                              c:/program files/microchip/xc32/v1.42/bin/bin/../../lib/gcc/pic32mx/4.8.3/../../../../pic32mx/lib/./proc/32MX795F512L\default_isr_vectors.o (__vector_dispatch_5)
c:/program files/microchip/xc32/v1.42/bin/bin/../../lib/gcc/pic32mx/4.8.3/../../../../pic32mx/lib\libpic32.a(vector6.o)
                              c:/program files/microchip/xc32/v1.42/bin/bin/../../lib/gcc/pic32mx/4.8.3/../../../../pic32mx/lib/./proc/32MX795F512L\default_isr_vectors.o (__vector_dispatch_6)
c:/program files/microchip/xc32/v1.42/bin/bin/../../lib/gcc/pic32mx/4.8.3/../../../../pic32mx/lib\libpic32.a(vector8.o)
                              c:/program files/microchip/xc32/v1.42/bin/bin/../../lib/gcc/pic32mx/4.8.3/../../../../pic32mx/lib/./proc/32MX795F512L\default_isr_vectors.o (__vector_dispatch_8)
c:/program files/microchip/xc32/v1.42/bin/bin/../../lib/gcc/pic32mx/4.8.3/../../../../pic32mx/lib\libpic32.a(vector9.o)
                              c:/program files/microchip/xc32/v1.42/bin/bin/../../lib/gcc/pic32mx/4.8.3/../../../../pic32mx/lib/./proc/32MX795F512L\default_isr_vectors.o (__vector_dispatch_9)
c:/program files/microchip/xc32/v1.42/bin/bin/../../lib/gcc/pic32mx/4.8.3/../../../../pic32mx/lib\libpic32.a(vector10.o)
                              c:/program files/microchip/xc32/v1.42/bin/bin/../../lib/gcc/pic32mx/4.8.3/../../../../pic32mx/lib/./proc/32MX795F512L\default_isr_vectors.o (__vector_dispatch_10)
c:/program files/microchip/xc32/v1.42/bin/bin/../../lib/gcc/pic32mx/4.8.3/../../../../pic32mx/lib\libpic32.a(vector12.o)
                              c:/program files/microchip/xc32/v1.42/bin/bin/../../lib/gcc/pic32mx/4.8.3/../../../../pic32mx/lib/./proc/32MX795F512L\default_isr_vectors.o (__vector_dispatch_12)
c:/program files/microchip/xc32/v1.42/bin/bin/../../lib/gcc/pic32mx/4.8.3/../../../../pic32mx/lib\libpic32.a(vector13.o)
                              c:/program files/microchip/xc32/v1.42/bin/bin/../../lib/gcc/pic32mx/4.8.3/../../../../pic32mx/lib/./proc/32MX795F512L\default_isr_vectors.o (__vector_dispatch_13)
c:/program files/microchip/xc32/v1.42/bin/bin/../../lib/gcc/pic32mx/4.8.3/../../../../pic32mx/lib\libpic32.a(vector14.o)
                              c:/program files/microchip/xc32/v1.42/bin/bin/../../lib/gcc/pic32mx/4.8.3/../../../../pic32mx/lib/./proc/32MX795F512L\default_isr_vectors.o (__vector_dispatch_14)
c:/program files/microchip/xc32/v1.42/bin/bin/../../lib/gcc/pic32mx/4.8.3/../../../../pic32mx/lib\libpic32.a(vector15.o)
                              c:/program files/microchip/xc32/v1.42/bin/bin/../../lib/gcc/pic32mx/4.8.3/../../../../pic32mx/lib/./proc/32MX795F512L\default_isr_vectors.o (__vector_dispatch_15)
c:/program files/microchip/xc32/v1.42/bin/bin/../../lib/gcc/pic32mx/4.8.3/../../../../pic32mx/lib\libpic32.a(vector16.o)
                              c:/program files/microchip/xc32/v1.42/bin/bin/../../lib/gcc/pic32mx/4.8.3/../../../../pic32mx/lib/./proc/32MX795F512L\default_isr_vectors.o (__vector_dispatch_16)
c:/program files/microchip/xc32/v1.42/bin/bin/../../lib/gcc/pic32mx/4.8.3/../../../../pic32mx/lib\libpic32.a(vector17.o)
                              c:/program files/microchip/xc32/v1.42/bin/bin/../../lib/gcc/pic32mx/4.8.3/../../../../pic32mx/lib/./proc/32MX795F512L\default_isr_vectors.o (__vector_dispatch_17)
c:/program files/microchip/xc32/v1.42/bin/bin/../../lib/gcc/pic32mx/4.8.3/../../../../pic32mx/lib\libpic32.a(vector18.o)
                              c:/program files/microchip/xc32/v1.42/bin/bin/../../lib/gcc/pic32mx/4.8.3/../../../../pic32mx/lib/./proc/32MX795F512L\default_isr_vectors.o (__vector_dispatch_18)
c:/program files/microchip/xc32/v1.42/bin/bin/../../lib/gcc/pic32mx/4.8.3/../../../../pic32mx/lib\libpic32.a(vector19.o)
                              c:/program files/microchip/xc32/v1.42/bin/bin/../../lib/gcc/pic32mx/4.8.3/../../../../pic32mx/lib/./proc/32MX795F512L\default_isr_vectors.o (__vector_dispatch_19)
c:/program files/microchip/xc32/v1.42/bin/bin/../../lib/gcc/pic32mx/4.8.3/../../../../pic32mx/lib\libpic32.a(vector20.o)
                              c:/program files/microchip/xc32/v1.42/bin/bin/../../lib/gcc/pic32mx/4.8.3/../../../../pic32mx/lib/./proc/32MX795F512L\default_isr_vectors.o (__vector_dispatch_20)
c:/program files/microchip/xc32/v1.42/bin/bin/../../lib/gcc/pic32mx/4.8.3/../../../../pic32mx/lib\libpic32.a(vector21.o)
                              c:/program files/microchip/xc32/v1.42/bin/bin/../../lib/gcc/pic32mx/4.8.3/../../../../pic32mx/lib/./proc/32MX795F512L\default_isr_vectors.o (__vector_dispatch_21)
c:/program files/microchip/xc32/v1.42/bin/bin/../../lib/gcc/pic32mx/4.8.3/../../../../pic32mx/lib\libpic32.a(vector22.o)
                              c:/program files/microchip/xc32/v1.42/bin/bin/../../lib/gcc/pic32mx/4.8.3/../../../../pic32mx/lib/./proc/32MX795F512L\default_isr_vectors.o (__vector_dispatch_22)
c:/program files/microchip/xc32/v1.42/bin/bin/../../lib/gcc/pic32mx/4.8.3/../../../../pic32mx/lib\libpic32.a(vector25.o)
                              c:/program files/microchip/xc32/v1.42/bin/bin/../../lib/gcc/pic32mx/4.8.3/../../../../pic32mx/lib/./proc/32MX795F512L\default_isr_vectors.o (__vector_dispatch_25)
c:/program files/microchip/xc32/v1.42/bin/bin/../../lib/gcc/pic32mx/4.8.3/../../../../pic32mx/lib\libpic32.a(vector26.o)
                              c:/program files/microchip/xc32/v1.42/bin/bin/../../lib/gcc/pic32mx/4.8.3/../../../../pic32mx/lib/./proc/32MX795F512L\default_isr_vectors.o (__vector_dispatch_26)
c:/program files/microchip/xc32/v1.42/bin/bin/../../lib/gcc/pic32mx/4.8.3/../../../../pic32mx/lib\libpic32.a(vector27.o)
                              c:/program files/microchip/xc32/v1.42/bin/bin/../../lib/gcc/pic32mx/4.8.3/../../../../pic32mx/lib/./proc/32MX795F512L\default_isr_vectors.o (__vector_dispatch_27)
c:/program files/microchip/xc32/v1.42/bin/bin/../../lib/gcc/pic32mx/4.8.3/../../../../pic32mx/lib\libpic32.a(vector28.o)
                              c:/program files/microchip/xc32/v1.42/bin/bin/../../lib/gcc/pic32mx/4.8.3/../../../../pic32mx/lib/./proc/32MX795F512L\default_isr_vectors.o (__vector_dispatch_28)
c:/program files/microchip/xc32/v1.42/bin/bin/../../lib/gcc/pic32mx/4.8.3/../../../../pic32mx/lib\libpic32.a(vector29.o)
                              c:/program files/microchip/xc32/v1.42/bin/bin/../../lib/gcc/pic32mx/4.8.3/../../../../pic32mx/lib/./proc/32MX795F512L\default_isr_vectors.o (__vector_dispatch_29)
c:/program files/microchip/xc32/v1.42/bin/bin/../../lib/gcc/pic32mx/4.8.3/../../../../pic32mx/lib\libpic32.a(vector30.o)
                              c:/program files/microchip/xc32/v1.42/bin/bin/../../lib/gcc/pic32mx/4.8.3/../../../../pic32mx/lib/./proc/32MX795F512L\default_isr_vectors.o (__vector_dispatch_30)
c:/program files/microchip/xc32/v1.42/bin/bin/../../lib/gcc/pic32mx/4.8.3/../../../../pic32mx/lib\libpic32.a(vector31.o)
                              c:/program files/microchip/xc32/v1.42/bin/bin/../../lib/gcc/pic32mx/4.8.3/../../../../pic32mx/lib/./proc/32MX795F512L\default_isr_vectors.o (__vector_dispatch_31)
c:/program files/microchip/xc32/v1.42/bin/bin/../../lib/gcc/pic32mx/4.8.3/../../../../pic32mx/lib\libpic32.a(vector32.o)
                              c:/program files/microchip/xc32/v1.42/bin/bin/../../lib/gcc/pic32mx/4.8.3/../../../../pic32mx/lib/./proc/32MX795F512L\default_isr_vectors.o (__vector_dispatch_32)
c:/program files/microchip/xc32/v1.42/bin/bin/../../lib/gcc/pic32mx/4.8.3/../../../../pic32mx/lib\libpic32.a(vector33.o)
                              c:/program files/microchip/xc32/v1.42/bin/bin/../../lib/gcc/pic32mx/4.8.3/../../../../pic32mx/lib/./proc/32MX795F512L\default_isr_vectors.o (__vector_dispatch_33)
c:/program files/microchip/xc32/v1.42/bin/bin/../../lib/gcc/pic32mx/4.8.3/../../../../pic32mx/lib\libpic32.a(vector34.o)
                              c:/program files/microchip/xc32/v1.42/bin/bin/../../lib/gcc/pic32mx/4.8.3/../../../../pic32mx/lib/./proc/32MX795F512L\default_isr_vectors.o (__vector_dispatch_34)
c:/program files/microchip/xc32/v1.42/bin/bin/../../lib/gcc/pic32mx/4.8.3/../../../../pic32mx/lib\libpic32.a(vector35.o)
                              c:/program files/microchip/xc32/v1.42/bin/bin/../../lib/gcc/pic32mx/4.8.3/../../../../pic32mx/lib/./proc/32MX795F512L\default_isr_vectors.o (__vector_dispatch_35)
c:/program files/microchip/xc32/v1.42/bin/bin/../../lib/gcc/pic32mx/4.8.3/../../../../pic32mx/lib\libpic32.a(vector36.o)
                              c:/program files/microchip/xc32/v1.42/bin/bin/../../lib/gcc/pic32mx/4.8.3/../../../../pic32mx/lib/./proc/32MX795F512L\default_isr_vectors.o (__vector_dispatch_36)
c:/program files/microchip/xc32/v1.42/bin/bin/../../lib/gcc/pic32mx/4.8.3/../../../../pic32mx/lib\libpic32.a(vector37.o)
                              c:/program files/microchip/xc32/v1.42/bin/bin/../../lib/gcc/pic32mx/4.8.3/../../../../pic32mx/lib/./proc/32MX795F512L\default_isr_vectors.o (__vector_dispatch_37)
c:/program files/microchip/xc32/v1.42/bin/bin/../../lib/gcc/pic32mx/4.8.3/../../../../pic32mx/lib\libpic32.a(vector38.o)
                              c:/program files/microchip/xc32/v1.42/bin/bin/../../lib/gcc/pic32mx/4.8.3/../../../../pic32mx/lib/./proc/32MX795F512L\default_isr_vectors.o (__vector_dispatch_38)
c:/program files/microchip/xc32/v1.42/bin/bin/../../lib/gcc/pic32mx/4.8.3/../../../../pic32mx/lib\libpic32.a(vector39.o)
                              c:/program files/microchip/xc32/v1.42/bin/bin/../../lib/gcc/pic32mx/4.8.3/../../../../pic32mx/lib/./proc/32MX795F512L\default_isr_vectors.o (__vector_dispatch_39)
c:/program files/microchip/xc32/v1.42/bin/bin/../../lib/gcc/pic32mx/4.8.3/../../../../pic32mx/lib\libpic32.a(vector40.o)
                              c:/program files/microchip/xc32/v1.42/bin/bin/../../lib/gcc/pic32mx/4.8.3/../../../../pic32mx/lib/./proc/32MX795F512L\default_isr_vectors.o (__vector_dispatch_40)
c:/program files/microchip/xc32/v1.42/bin/bin/../../lib/gcc/pic32mx/4.8.3/../../../../pic32mx/lib\libpic32.a(vector41.o)
                              c:/program files/microchip/xc32/v1.42/bin/bin/../../lib/gcc/pic32mx/4.8.3/../../../../pic32mx/lib/./proc/32MX795F512L\default_isr_vectors.o (__vector_dispatch_41)
c:/program files/microchip/xc32/v1.42/bin/bin/../../lib/gcc/pic32mx/4.8.3/../../../../pic32mx/lib\libpic32.a(vector42.o)
                              c:/program files/microchip/xc32/v1.42/bin/bin/../../lib/gcc/pic32mx/4.8.3/../../../../pic32mx/lib/./proc/32MX795F512L\default_isr_vectors.o (__vector_dispatch_42)
c:/program files/microchip/xc32/v1.42/bin/bin/../../lib/gcc/pic32mx/4.8.3/../../../../pic32mx/lib\libpic32.a(vector43.o)
                              c:/program files/microchip/xc32/v1.42/bin/bin/../../lib/gcc/pic32mx/4.8.3/../../../../pic32mx/lib/./proc/32MX795F512L\default_isr_vectors.o (__vector_dispatch_43)
c:/program files/microchip/xc32/v1.42/bin/bin/../../lib/gcc/pic32mx/4.8.3/../../../../pic32mx/lib\libpic32.a(vector44.o)
                              c:/program files/microchip/xc32/v1.42/bin/bin/../../lib/gcc/pic32mx/4.8.3/../../../../pic32mx/lib/./proc/32MX795F512L\default_isr_vectors.o (__vector_dispatch_44)
c:/program files/microchip/xc32/v1.42/bin/bin/../../lib/gcc/pic32mx/4.8.3/../../../../pic32mx/lib\libpic32.a(vector45.o)
                              c:/program files/microchip/xc32/v1.42/bin/bin/../../lib/gcc/pic32mx/4.8.3/../../../../pic32mx/lib/./proc/32MX795F512L\default_isr_vectors.o (__vector_dispatch_45)
c:/program files/microchip/xc32/v1.42/bin/bin/../../lib/gcc/pic32mx/4.8.3/../../../../pic32mx/lib\libpic32.a(vector46.o)
                              c:/program files/microchip/xc32/v1.42/bin/bin/../../lib/gcc/pic32mx/4.8.3/../../../../pic32mx/lib/./proc/32MX795F512L\default_isr_vectors.o (__vector_dispatch_46)
c:/program files/microchip/xc32/v1.42/bin/bin/../../lib/gcc/pic32mx/4.8.3/../../../../pic32mx/lib\libpic32.a(vector47.o)
                              c:/program files/microchip/xc32/v1.42/bin/bin/../../lib/gcc/pic32mx/4.8.3/../../../../pic32mx/lib/./proc/32MX795F512L\default_isr_vectors.o (__vector_dispatch_47)
c:/program files/microchip/xc32/v1.42/bin/bin/../../lib/gcc/pic32mx/4.8.3/../../../../pic32mx/lib\libpic32.a(vector48.o)
                              c:/program files/microchip/xc32/v1.42/bin/bin/../../lib/gcc/pic32mx/4.8.3/../../../../pic32mx/lib/./proc/32MX795F512L\default_isr_vectors.o (__vector_dispatch_48)
c:/program files/microchip/xc32/v1.42/bin/bin/../../lib/gcc/pic32mx/4.8.3/../../../../pic32mx/lib\libpic32.a(vector49.o)
                              c:/program files/microchip/xc32/v1.42/bin/bin/../../lib/gcc/pic32mx/4.8.3/../../../../pic32mx/lib/./proc/32MX795F512L\default_isr_vectors.o (__vector_dispatch_49)
c:/program files/microchip/xc32/v1.42/bin/bin/../../lib/gcc/pic32mx/4.8.3/../../../../pic32mx/lib\libpic32.a(vector50.o)
                              c:/program files/microchip/xc32/v1.42/bin/bin/../../lib/gcc/pic32mx/4.8.3/../../../../pic32mx/lib/./proc/32MX795F512L\default_isr_vectors.o (__vector_dispatch_50)
c:/program files/microchip/xc32/v1.42/bin/bin/../../lib/gcc/pic32mx/4.8.3/../../../../pic32mx/lib\libpic32.a(vector51.o)
                              c:/program files/microchip/xc32/v1.42/bin/bin/../../lib/gcc/pic32mx/4.8.3/../../../../pic32mx/lib/./proc/32MX795F512L\default_isr_vectors.o (__vector_dispatch_51)
c:/program files/microchip/xc32/v1.42/bin/bin/../../lib/gcc/pic32mx/4.8.3/../../../../pic32mx/lib\libpic32.a(defaultinterrupt.o)
                              c:/program files/microchip/xc32/v1.42/bin/bin/../../lib/gcc/pic32mx/4.8.3/../../../../pic32mx/lib\libpic32.a(vector0.o) (_DefaultInterrupt)
c:/program files/microchip/xc32/v1.42/bin/bin/../../lib/gcc/pic32mx/4.8.3/../../../../pic32mx/lib\libm.a(fp32div.o)
                              build/default/debug/_ext/1688732426/insgps16state_v1.o (fpdiv)
c:/program files/microchip/xc32/v1.42/bin/bin/../../lib/gcc/pic32mx/4.8.3/../../../../pic32mx/lib\libm.a(fp32mul.o)
                              build/default/debug/_ext/1688732426/insgps16state_v1.o (fpmul)
c:/program files/microchip/xc32/v1.42/bin/bin/../../lib/gcc/pic32mx/4.8.3/../../../../pic32mx/lib\libm.a(fp32subadd.o)
                              build/default/debug/_ext/1688732426/insgps16state_v1.o (fpsub)
c:/program files/microchip/xc32/v1.42/bin/bin/../../lib/gcc/pic32mx/4.8.3/../../../../pic32mx/lib\libm.a(w_sqrtf.o)
                              build/default/debug/_ext/1688732426/insgps16state_v1.o (sqrtf)
c:/program files/microchip/xc32/v1.42/bin/bin/../../lib/gcc/pic32mx/4.8.3/../../../../pic32mx/lib\libm.a(fpcmp.o)
                              c:/program files/microchip/xc32/v1.42/bin/bin/../../lib/gcc/pic32mx/4.8.3/../../../../pic32mx/lib\libm.a(w_sqrtf.o) (fpcmp)
c:/program files/microchip/xc32/v1.42/bin/bin/../../lib/gcc/pic32mx/4.8.3/../../../../pic32mx/lib\libm.a(fpsqrt32.o)
                              c:/program files/microchip/xc32/v1.42/bin/bin/../../lib/gcc/pic32mx/4.8.3/../../../../pic32mx/lib\libm.a(w_sqrtf.o) (__mchp_sqrtf)
c:/program files/microchip/xc32/v1.42/bin/bin/../../lib/gcc/pic32mx/4.8.3/../../../../pic32mx/lib\libm.a(s_lib_ver.o)
                              c:/program files/microchip/xc32/v1.42/bin/bin/../../lib/gcc/pic32mx/4.8.3/../../../../pic32mx/lib\libm.a(w_sqrtf.o) (math_errhandling)
c:/program files/microchip/xc32/v1.42/bin/bin/../../lib/gcc/pic32mx/4.8.3/../../../../pic32mx/lib\libm.a(fpexsqrt32.o)
                              c:/program files/microchip/xc32/v1.42/bin/bin/../../lib/gcc/pic32mx/4.8.3/../../../../pic32mx/lib\libm.a(fpsqrt32.o) (fpexsqrt)
c:/program files/microchip/xc32/v1.42/bin/bin/../../lib/gcc/pic32mx/4.8.3/../../../../pic32mx/lib\libc.a(errno.o)
                              c:/program files/microchip/xc32/v1.42/bin/bin/../../lib/gcc/pic32mx/4.8.3/../../../../pic32mx/lib\libm.a(w_sqrtf.o) (errno)
c:/program files/microchip/xc32/v1.42/bin/bin/../../lib/gcc/pic32mx/4.8.3/../../../../pic32mx/lib\libc.a(strchr.o)
                              build/default/debug/_ext/1688732426/system_tasks.o (strchr)
c:/program files/microchip/xc32/v1.42/bin/bin/../../lib/gcc/pic32mx/4.8.3/../../../../pic32mx/lib\libc.a(strncpy.o)
                              build/default/debug/_ext/1688732426/system_tasks.o (strncpy)
c:/program files/microchip/xc32/v1.42/bin/bin/../../lib/gcc/pic32mx/4.8.3/../../../../pic32mx/lib\libc.a(strtof.o)
                              build/default/debug/_ext/1688732426/system_tasks.o (strtof)
c:/program files/microchip/xc32/v1.42/bin/bin/../../lib/gcc/pic32mx/4.8.3/../../../../pic32mx/lib\libc.a(strtok.o)
                              build/default/debug/_ext/1688732426/system_tasks.o (strtok)
c:/program files/microchip/xc32/v1.42/bin/bin/../../lib/gcc/pic32mx/4.8.3/../../../../pic32mx/lib\libc.a(strcspn.o)
                              c:/program files/microchip/xc32/v1.42/bin/bin/../../lib/gcc/pic32mx/4.8.3/../../../../pic32mx/lib\libc.a(strtok.o) (strcspn)
c:/program files/microchip/xc32/v1.42/bin/bin/../../lib/gcc/pic32mx/4.8.3/../../../../pic32mx/lib\libc.a(strspn.o)
                              c:/program files/microchip/xc32/v1.42/bin/bin/../../lib/gcc/pic32mx/4.8.3/../../../../pic32mx/lib\libc.a(strtok.o) (strspn)
c:/program files/microchip/xc32/v1.42/bin/bin/../../lib/gcc/pic32mx/4.8.3/../../../../pic32mx/lib\libm.a(__strtof.o)
                              c:/program files/microchip/xc32/v1.42/bin/bin/../../lib/gcc/pic32mx/4.8.3/../../../../pic32mx/lib\libc.a(strtof.o) (__strtof)
c:/program files/microchip/xc32/v1.42/bin/bin/../../lib/gcc/pic32mx/4.8.3/../../../../pic32mx/lib\libm.a(negsf2.o)
                              c:/program files/microchip/xc32/v1.42/bin/bin/../../lib/gcc/pic32mx/4.8.3/../../../../pic32mx/lib\libm.a(__strtof.o) (__negsf2)
c:/program files/microchip/xc32/v1.42/bin/bin/../../lib/gcc/pic32mx/4.8.3/../../../../pic32mx/lib\libm.a(sitofp.o)
                              c:/program files/microchip/xc32/v1.42/bin/bin/../../lib/gcc/pic32mx/4.8.3/../../../../pic32mx/lib\libm.a(__strtof.o) (__floatsisf)
c:/program files/microchip/xc32/v1.42/bin/bin/../../lib/gcc/pic32mx/4.8.3/../../../../pic32mx/lib\libe.a(_ldexpf.o)
                              c:/program files/microchip/xc32/v1.42/bin/bin/../../lib/gcc/pic32mx/4.8.3/../../../../pic32mx/lib\libm.a(__strtof.o) (__ldexpf)
c:/program files/microchip/xc32/v1.42/bin/bin/../../lib/gcc/pic32mx/4.8.3/../../../../pic32mx/lib\libc.a(ctype.o)
                              c:/program files/microchip/xc32/v1.42/bin/bin/../../lib/gcc/pic32mx/4.8.3/../../../../pic32mx/lib\libm.a(__strtof.o) (_ctype)

Allocating common symbols
Common symbol       size              file

pxTaskNavCorrectionHandle
                    0x4               build/default/debug/_ext/639803181/sys_clk_static.o
SPI_ReadBuffer      0xa               build/default/debug/_ext/1360937237/app.o
pxDelayedTaskList   0x4               build/default/debug/_ext/1128951024/tasks.o
Vel                 0xc               build/default/debug/_ext/639803181/sys_clk_static.o
G                   0x300             build/default/debug/_ext/1688732426/insgps16state_v1.o
K                   0x280             build/default/debug/_ext/1688732426/insgps16state_v1.o
H                   0x280             build/default/debug/_ext/1688732426/insgps16state_v1.o
F                   0x400             build/default/debug/_ext/1688732426/insgps16state_v1.o
appData             0x8               build/default/debug/_ext/639803181/sys_clk_static.o
P                   0x400             build/default/debug/_ext/1688732426/insgps16state_v1.o
R                   0x28              build/default/debug/_ext/1688732426/insgps16state_v1.o
Q                   0x30              build/default/debug/_ext/1688732426/insgps16state_v1.o
X                   0x40              build/default/debug/_ext/1688732426/insgps16state_v1.o
Pos                 0xc               build/default/debug/_ext/639803181/sys_clk_static.o
SPI_WriteBuffer     0xa               build/default/debug/_ext/1360937237/app.o
sysObj              0xc               build/default/debug/_ext/1688732426/system_init.o
pxReadyTasksLists   0x64              build/default/debug/_ext/1128951024/tasks.o
pxOverflowDelayedTaskList
                    0x4               build/default/debug/_ext/1128951024/tasks.o
SPI_handle          0x4               build/default/debug/_ext/1360937237/app.o
gDrvUSARTCommonDataObj
                    0xc               build/default/debug/_ext/260586732/drv_usart.o
xPendingReadyList   0x14              build/default/debug/_ext/1128951024/tasks.o
gDrvUSARTClientObj  0x4c              build/default/debug/_ext/260586732/drv_usart.o
xTasksWaitingTermination
                    0x14              build/default/debug/_ext/1128951024/tasks.o
spi_status          0x1               build/default/debug/_ext/1360937237/app.o
px_APP_TasksHandle  0x4               build/default/debug/_ext/639803181/sys_clk_static.o
gDrvUSARTObj        0x60              build/default/debug/_ext/260586732/drv_usart.o
pxTaskNavPredictionHandle
                    0x4               build/default/debug/_ext/639803181/sys_clk_static.o
Nav                 0x40              build/default/debug/_ext/1688732426/insgps16state_v1.o
sysDevconObj        0x8               build/default/debug/_ext/1271179505/sys_devcon.o
SPI_bufferHandle    0x4               build/default/debug/_ext/1360937237/app.o
xSuspendedTaskList  0x14              build/default/debug/_ext/1128951024/tasks.o
Be                  0xc               build/default/debug/_ext/1688732426/insgps16state_v1.o
mag_data            0xc               build/default/debug/_ext/639803181/sys_clk_static.o
xDelayedTaskList2   0x14              build/default/debug/_ext/1128951024/tasks.o
xDelayedTaskList1   0x14              build/default/debug/_ext/1128951024/tasks.o
BaroAlt             0x4               build/default/debug/_ext/639803181/sys_clk_static.o

Microchip PIC32 Memory-Usage Report

kseg0 Program-Memory Usage
section                    address  length [bytes]      (dec)  Description
-------                 ----------  -------------------------  -----------
.text.DRV_SPI_SetupHard 0x9d000000         0x1598        5528   
.text._DRV_USART_Hardwa 0x9d001598         0x1138        4408   
.text.LinearizeFG       0x9d0026d0          0x6cc        1740   
.text.DRV_SPI_ISRMaster 0x9d002d9c          0x548        1352   
.text._DRV_USART_Buffer 0x9d0032e4          0x52c        1324   
.text.StateEq           0x9d003810          0x4e4        1252   
.text.APP_Tasks         0x9d003cf4          0x4d4        1236   
.text.LinearizeH        0x9d0041c8          0x498        1176   
.text                   0x9d004660          0x454        1108  App's exec code 
.text.DRV_SPI_Open      0x9d004ab4          0x428        1064   
.text.DRV_USART_Read    0x9d004edc          0x3a4         932   
.text.DRV_USART_Initial 0x9d005280          0x380         896   
.text.__strtof          0x9d005600          0x358         856   
.text.MeasurementEq     0x9d005958          0x324         804   
.text.SerialUpdate      0x9d005c7c          0x2b8         696   
.text.CovariancePredict 0x9d005f34          0x2b8         696   
.text.INSCorrection     0x9d0061ec          0x2b4         692   
.text.nRF24L01p_PowerUp 0x9d0064a0          0x2a0         672   
.text.DRV_SPI_Initializ 0x9d006740          0x278         632   
.text._DRV_USART_Buffer 0x9d0069b8          0x278         632   
.text.fpsubadd          0x9d006c30          0x278         632   
.text.INSStatePredictio 0x9d006ea8          0x25c         604   
.text.xQueueGenericRece 0x9d007104          0x24c         588   
.text.RungeKutta        0x9d007350          0x244         580   
.text.fp32div           0x9d007594          0x230         560   
.text.DRV_SPI_ClientCon 0x9d0077c4          0x22c         556   
.text.DRV_SPI_ISRErrorT 0x9d0079f0          0x21c         540   
.text.vTaskNavCorrectio 0x9d007c0c          0x210         528   
.text.xQueueGenericSend 0x9d007e1c          0x208         520   
.text.DRV_USART_TasksEr 0x9d008024          0x1ec         492   
.text.DRV_SPI_SYS_QUEUE 0x9d008210          0x1dc         476   
.text.xTaskGenericCreat 0x9d0083ec          0x1c0         448   
.dinit                  0x9d0085ac          0x1c0         448   
.text.fp32mul           0x9d00876c          0x1bc         444   
.ExternalInterruptInsta 0x9d008928          0x1b4         436   
.ExternalInterruptInsta 0x9d008adc          0x1b4         436   
.DrvUsartInstance0_vect 0x9d008c90          0x1b4         436   
.SPIInstance0_vector_te 0x9d008e44          0x1b4         436   
.text.DRV_SPI_MasterRMS 0x9d008ff8          0x1ac         428   
.text.DRV_SPI_BufferAdd 0x9d0091a4          0x1ac         428   
.text.libm              0x9d009350          0x1ac         428   
.text.INSGPSInit        0x9d0094fc          0x1a4         420   
.text.xTaskIncrementTic 0x9d0096a0          0x19c         412   
.text.DRV_USART_Open    0x9d00983c          0x184         388   
.text.DRV_SPI_MasterRMR 0x9d0099c0          0x180         384   
.text.SYS_Initialize    0x9d009b40          0x17c         380   
.text                   0x9d009cbc          0x168         360  App's exec code 
.text.xTaskResumeAll    0x9d009e24          0x154         340   
.text.vTaskPriorityInhe 0x9d009f78          0x12c         300   
.rodata                 0x9d00a0a4          0x128         296  Read-only const 
.text.ulTaskNotifyTake  0x9d00a1cc          0x128         296   
.text.vTaskNavPredictio 0x9d00a2f4          0x110         272   
.text.SYS_Tasks         0x9d00a404          0x110         272   
.text.DRV_SPI_SYS_QUEUE 0x9d00a514          0x104         260   
.text.prvUnlockQueue    0x9d00a618          0x104         260   
.text.__ldexpf          0x9d00a71c          0x104         260   
.rodata                 0x9d00a820          0x104         260  Read-only const 
.text.prvCopyDataToQueu 0x9d00a924           0xfc         252   
.text.libm.fpexsqrt     0x9d00aa20           0xfc         252   
.text.xTaskPriorityDisi 0x9d00ab1c           0xf8         248   
.text.vTaskNotifyGiveFr 0x9d00ac14           0xf8         248   
.text.vTaskSwitchContex 0x9d00ad0c           0xe0         224   
.text.SYS_DEVCON_Perfor 0x9d00adec           0xdc         220   
.text.general_exception 0x9d00aec8           0xdc         220   
.text.vTaskDelayUntil   0x9d00afa4           0xd8         216   
.text.strtok            0x9d00b07c           0xd0         208   
.text.xQueueGenericRese 0x9d00b14c           0xc4         196   
.text.xQueueGiveFromISR 0x9d00b210           0xc4         196   
.text.DRV_SPI_SYS_QUEUE 0x9d00b2d4           0xc0         192   
.text.xTaskRemoveFromEv 0x9d00b394           0xbc         188   
.text.pvPortMalloc      0x9d00b450           0xb8         184   
.text.prvInitialiseTCBV 0x9d00b508           0xb8         184   
.text.DRV_USART_TasksRe 0x9d00b5c0           0xac         172   
.text.DRV_USART_TasksTr 0x9d00b66c           0xac         172   
.text.SYS_PORTS_Initial 0x9d00b718           0xa8         168   
.text                   0x9d00b7c0           0xa8         168  App's exec code 
.text.xTaskCheckForTime 0x9d00b868           0xa0         160   
.text.fpcmp             0x9d00b908           0x9c         156   
.text.OSAL_SEM_Create   0x9d00b9a4           0x94         148   
.text.xQueueGenericCrea 0x9d00ba38           0x94         148   
.text.vTaskPlaceOnEvent 0x9d00bacc           0x94         148   
.text.prvInitialiseTask 0x9d00bb60           0x90         144   
.text.vTaskDelay        0x9d00bbf0           0x90         144   
.text.prvCheckTasksWait 0x9d00bc80           0x90         144   
.text.prvAllocateTCBAnd 0x9d00bd10           0x84         132   
.text.vTaskStartSchedul 0x9d00bd94           0x84         132   
.text.xQueueCreateMutex 0x9d00be18           0x80         128   
.text.nRF24L01p_PRX_con 0x9d00be98           0x7c         124   
.text.DRV_SPI_SYS_QUEUE 0x9d00bf14           0x74         116   
.text.strncpy           0x9d00bf88           0x74         116   
.text._DRV_SPI_SYS_QUEU 0x9d00bffc           0x70         112   
.text.prvAddCurrentTask 0x9d00c06c           0x70         112   
.text.strcspn           0x9d00c0dc           0x70         112   
.text.strspn            0x9d00c14c           0x70         112   
.rodata                 0x9d00c1bc           0x6c         108  Read-only const 
.text._DRV_SPI_SYS_QUEU 0x9d00c228           0x6c         108   
.text.vApplicationSetup 0x9d00c294           0x6c         108   
.text.DRV_SPI_SetVTable 0x9d00c300           0x68         104   
.text.APP_SPI_BufferEve 0x9d00c368           0x68         104   
.text.vTaskExitCritical 0x9d00c3d0           0x68         104   
.text.sqrtf             0x9d00c438           0x68         104   
.text.IntHandlerExterna 0x9d00c4a0           0x60          96   
.text.DRV_SPI_SYS_QUEUE 0x9d00c500           0x60          96   
.text.DRV_SPI_SYS_QUEUE 0x9d00c560           0x60          96   
.text.sitofp            0x9d00c5c0           0x60          96   
.text.xPortStartSchedul 0x9d00c620           0x5c          92   
.text.vListInsert       0x9d00c67c           0x5c          92   
.text.SYS_CLK_Initializ 0x9d00c6d8           0x58          88   
.text.DRV_SPI_SYS_QUEUE 0x9d00c730           0x58          88   
.text.SYS_DEVCON_System 0x9d00c788           0x58          88   
.text.SYS_INT_SourceDis 0x9d00c7e0           0x58          88   
.text.main_entry        0x9d00c838           0x54          84   
.text.pxPortInitialiseS 0x9d00c88c           0x54          84   
.text.vPortIncrementTic 0x9d00c8e0           0x54          84   
.text.IntHandlerExterna 0x9d00c934           0x50          80   
.text.prvCopyDataFromQu 0x9d00c984           0x50          80   
.text.vTaskEnterCritica 0x9d00c9d4           0x50          80   
.rodata                 0x9d00ca24           0x4c          76  Read-only const 
.text.OSAL_SEM_PostISR  0x9d00ca70           0x4c          76   
.rodata                 0x9d00cabc           0x48          72  Read-only const 
.text.SYS_DEVCON_System 0x9d00cb04           0x48          72   
.text._bootstrap_except 0x9d00cb4c           0x48          72   
.vector_default         0x9d00cb94           0x48          72   
.text._general_exceptio 0x9d00cbdc           0x44          68   
.text.OSAL_SEM_Pend     0x9d00cc20           0x44          68   
.text.OSAL_MUTEX_Lock   0x9d00cc64           0x44          68   
.text.uxListRemove      0x9d00cca8           0x44          68   
.text                   0x9d00ccec           0x44          68  App's exec code 
.text.DRV_SPI_SYS_QUEUE 0x9d00cd30           0x40          64   
.text.prvIdleTask       0x9d00cd70           0x40          64   
.text.IntHandlerDrvUsar 0x9d00cdb0           0x3c          60   
.text._DRV_SPI_RootDriv 0x9d00cdec           0x3c          60   
.text.OSAL_MUTEX_Create 0x9d00ce28           0x3c          60   
.text.uxPortSetInterrup 0x9d00ce64           0x3c          60   
.text.prvResetNextTaskU 0x9d00cea0           0x38          56   
.text.DRV_SPI_SYS_QUEUE 0x9d00ced8           0x34          52   
.text.SYS_INT_ExternalI 0x9d00cf0c           0x34          52   
.text.xQueueCreateCount 0x9d00cf40           0x34          52   
.text.OSAL_SEM_Delete   0x9d00cf74           0x30          48   
.text.OSAL_SEM_Post     0x9d00cfa4           0x30          48   
.text.OSAL_MUTEX_Unlock 0x9d00cfd4           0x30          48   
.text.vListInsertEnd    0x9d00d004           0x30          48   
.text.prvDeleteTCB      0x9d00d034           0x30          48   
.text.vTaskMyDelay      0x9d00d064           0x2c          44   
.text.vApplicationStack 0x9d00d090           0x2c          44   
.text.vApplicationMallo 0x9d00d0bc           0x2c          44   
.text.prvTaskExitError  0x9d00d0e8           0x2c          44   
.text.strchr            0x9d00d114           0x2c          44   
.text._SYS_Tasks        0x9d00d140           0x28          40   
.text.APP_Initialize    0x9d00d168           0x28          40   
.text.BSP_Initialize    0x9d00d190           0x28          40   
.text._DRV_USART_Driver 0x9d00d1b8           0x28          40   
.text.pvTaskIncrementMu 0x9d00d1e0           0x28          40   
.text.FullCorrection    0x9d00d208           0x20          32   
.text.IntHandlerSPIInst 0x9d00d228           0x20          32   
.text.main              0x9d00d248           0x20          32   
.text.DRV_SPI_Tasks     0x9d00d268           0x20          32   
.text.vListInitialise   0x9d00d288           0x20          32   
.text.vPortClearInterru 0x9d00d2a8           0x1c          28   
.text.vQueueDelete      0x9d00d2c4           0x1c          28   
.text.strtof            0x9d00d2e0           0x1c          28   
.text._APP_Tasks        0x9d00d2fc           0x18          24   
.text.SYS_DEVCON_JTAGEn 0x9d00d314           0x18          24   
.text.SYS_INT_Initializ 0x9d00d32c           0x18          24   
.text                   0x9d00d344           0x18          24  App's exec code 
.rodata                 0x9d00d35c           0x18          24  Read-only const 
.text.SYS_DEVCON_Initia 0x9d00d374           0x14          20   
.text.vTaskSuspendAll   0x9d00d388           0x14          20   
.text.vTaskSetTimeOutSt 0x9d00d39c           0x14          20   
.text.negsf2            0x9d00d3b0           0x14          20   
.text.vTaskMissedYield  0x9d00d3c4           0x10          16   
.text.__exception_handl 0x9d00d3d4            0xc          12   
.text.SYS_CLK_SystemFre 0x9d00d3e0            0xc          12   
.text.SYS_CLK_Periphera 0x9d00d3ec            0xc          12   
.text.DRV_SPI_SYS_QUEUE 0x9d00d3f8            0xc          12   
.text.xTaskGetTickCount 0x9d00d404            0xc          12   
.rodata                 0x9d00d410            0x8           8  Read-only const 
.text.SYS_DEVCON_Tasks  0x9d00d418            0x8           8   
.text.vPortFree         0x9d00d420            0x8           8   
.text.vListInitialiseIt 0x9d00d428            0x8           8   
.rodata                 0x9d00d430            0x8           8  Read-only const 
.text._on_reset         0x9d00d438            0x8           8   
.text._on_bootstrap     0x9d00d440            0x8           8   
.rodata                 0x9d00d448            0x4           4  Read-only const 
      Total kseg0_program_mem used  :      0xd44c       54348  10.4% of 0x80000

kseg0 Boot-Memory Usage
section                    address  length [bytes]      (dec)  Description
-------                 ----------  -------------------------  -----------
         Total kseg0_boot_mem used  :           0           0  <1% of 0x970

Exception-Memory Usage 
section                    address  length [bytes]      (dec)  Description
-------                 ----------  -------------------------  -----------
.app_excpt              0x9fc01180           0x10          16  General-Exception 
.vector_0               0x9fc01200            0x8           8  Interrupt Vector 0 
.vector_1               0x9fc01220            0x8           8  Interrupt Vector 1 
.vector_2               0x9fc01240            0x8           8  Interrupt Vector 2 
.vector_3               0x9fc01260            0x8           8  Interrupt Vector 3 
.vector_4               0x9fc01280            0x8           8  Interrupt Vector 4 
.vector_5               0x9fc012a0            0x8           8  Interrupt Vector 5 
.vector_6               0x9fc012c0            0x8           8  Interrupt Vector 6 
.vector_7               0x9fc012e0           0x10          16  Interrupt Vector 7 
.vector_8               0x9fc01300            0x8           8  Interrupt Vector 8 
.vector_9               0x9fc01320            0x8           8  Interrupt Vector 9 
.vector_10              0x9fc01340            0x8           8  Interrupt Vector 10 
.vector_11              0x9fc01360           0x10          16  Interrupt Vector 11 
.vector_12              0x9fc01380            0x8           8  Interrupt Vector 12 
.vector_13              0x9fc013a0            0x8           8  Interrupt Vector 13 
.vector_14              0x9fc013c0            0x8           8  Interrupt Vector 14 
.vector_15              0x9fc013e0            0x8           8  Interrupt Vector 15 
.vector_16              0x9fc01400            0x8           8  Interrupt Vector 16 
.vector_17              0x9fc01420            0x8           8  Interrupt Vector 17 
.vector_18              0x9fc01440            0x8           8  Interrupt Vector 18 
.vector_19              0x9fc01460            0x8           8  Interrupt Vector 19 
.vector_20              0x9fc01480            0x8           8  Interrupt Vector 20 
.vector_21              0x9fc014a0            0x8           8  Interrupt Vector 21 
.vector_22              0x9fc014c0            0x8           8  Interrupt Vector 22 
.vector_23              0x9fc014e0           0x10          16  Interrupt Vector 23 
.vector_24              0x9fc01500           0x10          16  Interrupt Vector 24 
.vector_25              0x9fc01520            0x8           8  Interrupt Vector 25 
.vector_26              0x9fc01540            0x8           8  Interrupt Vector 26 
.vector_27              0x9fc01560            0x8           8  Interrupt Vector 27 
.vector_28              0x9fc01580            0x8           8  Interrupt Vector 28 
.vector_29              0x9fc015a0            0x8           8  Interrupt Vector 29 
.vector_30              0x9fc015c0            0x8           8  Interrupt Vector 30 
.vector_31              0x9fc015e0            0x8           8  Interrupt Vector 31 
.vector_32              0x9fc01600            0x8           8  Interrupt Vector 32 
.vector_33              0x9fc01620            0x8           8  Interrupt Vector 33 
.vector_34              0x9fc01640            0x8           8  Interrupt Vector 34 
.vector_35              0x9fc01660            0x8           8  Interrupt Vector 35 
.vector_36              0x9fc01680            0x8           8  Interrupt Vector 36 
.vector_37              0x9fc016a0            0x8           8  Interrupt Vector 37 
.vector_38              0x9fc016c0            0x8           8  Interrupt Vector 38 
.vector_39              0x9fc016e0            0x8           8  Interrupt Vector 39 
.vector_40              0x9fc01700            0x8           8  Interrupt Vector 40 
.vector_41              0x9fc01720            0x8           8  Interrupt Vector 41 
.vector_42              0x9fc01740            0x8           8  Interrupt Vector 42 
.vector_43              0x9fc01760            0x8           8  Interrupt Vector 43 
.vector_44              0x9fc01780            0x8           8  Interrupt Vector 44 
.vector_45              0x9fc017a0            0x8           8  Interrupt Vector 45 
.vector_46              0x9fc017c0            0x8           8  Interrupt Vector 46 
.vector_47              0x9fc017e0            0x8           8  Interrupt Vector 47 
.vector_48              0x9fc01800            0x8           8  Interrupt Vector 48 
.vector_49              0x9fc01820            0x8           8  Interrupt Vector 49 
.vector_50              0x9fc01840            0x8           8  Interrupt Vector 50 
.vector_51              0x9fc01860            0x8           8  Interrupt Vector 51 
          Total exception_mem used  :       0x1d0         464  11.3% of 0x1000

kseg1 Boot-Memory Usage
section                    address  length [bytes]      (dec)  Description
-------                 ----------  -------------------------  -----------
.reset                  0xbfc00000          0x208         520  Reset handler 
.bev_excpt              0xbfc00380           0x10          16  BEV-Exception 
.dbg_excpt              0xbfc00480            0x8           8   
         Total kseg1_boot_mem used  :       0x220         544  46.6% of 0x490
        --------------------------------------------------------------------------
         Total Program Memory used  :      0xd83c       55356  10.4% of 0x81e00
        --------------------------------------------------------------------------


kseg1 Data-Memory Usage
section                    address  length [bytes]      (dec)  Description
-------                 ----------  -------------------------  -----------
.dbg_data               0xa0000000          0x200         512  Memory reserved for debugger exec 
.sdata                  0xa0000200            0x4           4  Small init data 
.sbss                   0xa0000204           0x80         128  Small uninit data 
.bss                    0xa0000284         0x12ac        4780  Uninitialized data 
.bss                    0xa0001530         0x2f8c       12172  Uninitialized data 
.data                   0xa00044bc           0xb4         180  Initialized data 
.data.math_errhandling_ 0xa0004570            0x4           4   
.bss.errno              0xa0004574            0x4           4   
.bss                    0xa0004578            0x4           4  Uninitialized data 
         Total kseg1_data_mem used  :      0x457c       17788  13.6% of 0x20000
        --------------------------------------------------------------------------
            Total Data Memory used  :      0x457c       17788  13.6% of 0x20000
        --------------------------------------------------------------------------


Dynamic Data-Memory Reservation
section                    address  length [bytes]      (dec)  Description
-------                 ----------  -------------------------  -----------
heap                    0xa0004580              0           0  Reserved for heap 
stack                   0xa0004598        0x1ba58      113240  Reserved for stack 

        --------------------------------------------------------------------------

Discarded input sections

 .text          0x00000000        0x0 c:/program files/microchip/xc32/v1.42/bin/bin/../../lib/gcc/pic32mx/4.8.3/../../../../pic32mx/lib/./proc/32MX795F512L/crt0_mips32r2.o
 .data          0x00000000        0x0 c:/program files/microchip/xc32/v1.42/bin/bin/../../lib/gcc/pic32mx/4.8.3/../../../../pic32mx/lib/./proc/32MX795F512L/crt0_mips32r2.o
 .bss           0x00000000        0x0 c:/program files/microchip/xc32/v1.42/bin/bin/../../lib/gcc/pic32mx/4.8.3/../../../../pic32mx/lib/./proc/32MX795F512L/crt0_mips32r2.o
 .text          0x00000000        0x0 c:/program files/microchip/xc32/v1.42/bin/bin/../../lib/gcc/pic32mx/4.8.3/../../../../pic32mx/lib\software-debug-break.o
 .data          0x00000000        0x0 c:/program files/microchip/xc32/v1.42/bin/bin/../../lib/gcc/pic32mx/4.8.3/../../../../pic32mx/lib\software-debug-break.o
 .bss           0x00000000        0x0 c:/program files/microchip/xc32/v1.42/bin/bin/../../lib/gcc/pic32mx/4.8.3/../../../../pic32mx/lib\software-debug-break.o
 .reginfo       0x00000000       0x18 c:/program files/microchip/xc32/v1.42/bin/bin/../../lib/gcc/pic32mx/4.8.3/../../../../pic32mx/lib\software-debug-break.o
 .text          0x00000000        0x0 build/default/debug/_ext/977502197/drv_spi_tasks.o
 .data          0x00000000        0x0 build/default/debug/_ext/977502197/drv_spi_tasks.o
 .bss           0x00000000        0x0 build/default/debug/_ext/977502197/drv_spi_tasks.o
 .reginfo       0x00000000       0x18 build/default/debug/_ext/977502197/drv_spi_tasks.o
 .text          0x00000000        0x0 build/default/debug/_ext/977502197/drv_spi_api.o
 .data          0x00000000        0x0 build/default/debug/_ext/977502197/drv_spi_api.o
 .bss           0x00000000        0x0 build/default/debug/_ext/977502197/drv_spi_api.o
 .reginfo       0x00000000       0x18 build/default/debug/_ext/977502197/drv_spi_api.o
 .text          0x00000000        0x0 build/default/debug/_ext/977502197/drv_spi_master_rm_tasks.o
 .data          0x00000000        0x0 build/default/debug/_ext/977502197/drv_spi_master_rm_tasks.o
 .bss           0x00000000        0x0 build/default/debug/_ext/977502197/drv_spi_master_rm_tasks.o
 .reginfo       0x00000000       0x18 build/default/debug/_ext/977502197/drv_spi_master_rm_tasks.o
 .text          0x00000000        0x0 build/default/debug/_ext/639803181/sys_clk_static.o
 .data          0x00000000        0x0 build/default/debug/_ext/639803181/sys_clk_static.o
 .bss           0x00000000        0x0 build/default/debug/_ext/639803181/sys_clk_static.o
 .reginfo       0x00000000       0x18 build/default/debug/_ext/639803181/sys_clk_static.o
 .text.SYS_CLK_ReferenceClockFrequencyGet
                0x00000000        0x8 build/default/debug/_ext/639803181/sys_clk_static.o
 .text.SYS_CLK_SecondaryOscillatorEnable
                0x00000000       0x4c build/default/debug/_ext/639803181/sys_clk_static.o
 .text.SYS_CLK_SecondaryOscillatorDisable
                0x00000000       0x4c build/default/debug/_ext/639803181/sys_clk_static.o
 .text.SYS_CLK_SecondaryOscillatorIsEnabled
                0x00000000       0x10 build/default/debug/_ext/639803181/sys_clk_static.o
 .text          0x00000000        0x0 build/default/debug/_ext/822048611/sys_ports_static.o
 .data          0x00000000        0x0 build/default/debug/_ext/822048611/sys_ports_static.o
 .bss           0x00000000        0x0 build/default/debug/_ext/822048611/sys_ports_static.o
 .reginfo       0x00000000       0x18 build/default/debug/_ext/822048611/sys_ports_static.o
 .text.SYS_PORTS_Read
                0x00000000       0x38 build/default/debug/_ext/822048611/sys_ports_static.o
 .text.SYS_PORTS_Write
                0x00000000       0x2c build/default/debug/_ext/822048611/sys_ports_static.o
 .text.SYS_PORTS_Set
                0x00000000       0x38 build/default/debug/_ext/822048611/sys_ports_static.o
 .text.SYS_PORTS_Clear
                0x00000000       0x34 build/default/debug/_ext/822048611/sys_ports_static.o
 .text.SYS_PORTS_DirectionSelect
                0x00000000       0x6c build/default/debug/_ext/822048611/sys_ports_static.o
 .text.SYS_PORTS_DirectionGet
                0x00000000       0x38 build/default/debug/_ext/822048611/sys_ports_static.o
 .text.SYS_PORTS_Toggle
                0x00000000       0x34 build/default/debug/_ext/822048611/sys_ports_static.o
 .text.SYS_PORTS_OpenDrainEnable
                0x00000000       0x34 build/default/debug/_ext/822048611/sys_ports_static.o
 .text.SYS_PORTS_OpenDrainDisable
                0x00000000       0x34 build/default/debug/_ext/822048611/sys_ports_static.o
 .text.SYS_PORTS_ChangeNotificationGlobalEnable
                0x00000000       0x1c build/default/debug/_ext/822048611/sys_ports_static.o
 .text.SYS_PORTS_ChangeNotificationGlobalDisable
                0x00000000       0x1c build/default/debug/_ext/822048611/sys_ports_static.o
 .text.SYS_PORTS_GlobalChangeNotificationDisable
                0x00000000       0x1c build/default/debug/_ext/822048611/sys_ports_static.o
 .text.SYS_PORTS_ChangeNotificationEnable
                0x00000000       0x78 build/default/debug/_ext/822048611/sys_ports_static.o
 .text.SYS_PORTS_ChangeNotificationDisable
                0x00000000       0x20 build/default/debug/_ext/822048611/sys_ports_static.o
 .text.SYS_PORTS_ChangeNotificationInIdleModeEnable
                0x00000000       0x1c build/default/debug/_ext/822048611/sys_ports_static.o
 .text.SYS_PORTS_ChangeNotificationInIdleModeDisable
                0x00000000       0x1c build/default/debug/_ext/822048611/sys_ports_static.o
 .text.SYS_PORTS_ChangeNotificationPullUpEnable
                0x00000000       0x20 build/default/debug/_ext/822048611/sys_ports_static.o
 .text.SYS_PORTS_ChangeNotificationPullUpDisable
                0x00000000       0x20 build/default/debug/_ext/822048611/sys_ports_static.o
 .text.SYS_PORTS_PinModeSelect
                0x00000000       0x38 build/default/debug/_ext/822048611/sys_ports_static.o
 .text.SYS_PORTS_PinWrite
                0x00000000       0x70 build/default/debug/_ext/822048611/sys_ports_static.o
 .text.SYS_PORTS_PinRead
                0x00000000       0x44 build/default/debug/_ext/822048611/sys_ports_static.o
 .text.SYS_PORTS_PinToggle
                0x00000000       0x38 build/default/debug/_ext/822048611/sys_ports_static.o
 .text.SYS_PORTS_PinSet
                0x00000000       0x38 build/default/debug/_ext/822048611/sys_ports_static.o
 .text.SYS_PORTS_PinClear
                0x00000000       0x38 build/default/debug/_ext/822048611/sys_ports_static.o
 .text.SYS_PORTS_PinDirectionSelect
                0x00000000       0x78 build/default/debug/_ext/822048611/sys_ports_static.o
 .text.SYS_PORTS_PinOpenDrainEnable
                0x00000000       0x38 build/default/debug/_ext/822048611/sys_ports_static.o
 .text.SYS_PORTS_PinOpenDrainDisable
                0x00000000       0x38 build/default/debug/_ext/822048611/sys_ports_static.o
 .text.SYS_PORTS_RemapInput
                0x00000000        0x8 build/default/debug/_ext/822048611/sys_ports_static.o
 .text.SYS_PORTS_RemapOutput
                0x00000000        0x8 build/default/debug/_ext/822048611/sys_ports_static.o
 .text          0x00000000        0x0 build/default/debug/_ext/1688732426/insgps16state_v1.o
 .data          0x00000000        0x0 build/default/debug/_ext/1688732426/insgps16state_v1.o
 .bss           0x00000000        0xc build/default/debug/_ext/1688732426/insgps16state_v1.o
 .reginfo       0x00000000       0x18 build/default/debug/_ext/1688732426/insgps16state_v1.o
 .text.ins_get_num_states
                0x00000000        0x8 build/default/debug/_ext/1688732426/insgps16state_v1.o
 .text.INSResetP
                0x00000000       0x60 build/default/debug/_ext/1688732426/insgps16state_v1.o
 .text.INSSetState
                0x00000000       0xd8 build/default/debug/_ext/1688732426/insgps16state_v1.o
 .text.INSPosVelReset
                0x00000000       0xe0 build/default/debug/_ext/1688732426/insgps16state_v1.o
 .text.INSSetPosVelVar
                0x00000000       0x24 build/default/debug/_ext/1688732426/insgps16state_v1.o
 .text.INSSetGyroBias
                0x00000000       0x24 build/default/debug/_ext/1688732426/insgps16state_v1.o
 .text.INSSetAccelVar
                0x00000000       0x24 build/default/debug/_ext/1688732426/insgps16state_v1.o
 .text.INSSetGyroVar
                0x00000000       0x24 build/default/debug/_ext/1688732426/insgps16state_v1.o
 .text.INSSetMagVar
                0x00000000       0x24 build/default/debug/_ext/1688732426/insgps16state_v1.o
 .text.INSSetMagNorth
                0x00000000       0x24 build/default/debug/_ext/1688732426/insgps16state_v1.o
 .text.MagCorrection
                0x00000000       0x30 build/default/debug/_ext/1688732426/insgps16state_v1.o
 .text.MagVelBaroCorrection
                0x00000000       0x34 build/default/debug/_ext/1688732426/insgps16state_v1.o
 .text.GpsBaroCorrection
                0x00000000       0x3c build/default/debug/_ext/1688732426/insgps16state_v1.o
 .text.GpsMagCorrection
                0x00000000       0x28 build/default/debug/_ext/1688732426/insgps16state_v1.o
 .text.VelBaroCorrection
                0x00000000       0x34 build/default/debug/_ext/1688732426/insgps16state_v1.o
 .text.INSCovariancePrediction
                0x00000000       0x40 build/default/debug/_ext/1688732426/insgps16state_v1.o
 .text          0x00000000        0x0 build/default/debug/_ext/1688732426/system_init.o
 .bss           0x00000000        0x0 build/default/debug/_ext/1688732426/system_init.o
 .reginfo       0x00000000       0x18 build/default/debug/_ext/1688732426/system_init.o
 .text          0x00000000        0x0 build/default/debug/_ext/1688732426/system_interrupt.o
 .data          0x00000000        0x0 build/default/debug/_ext/1688732426/system_interrupt.o
 .bss           0x00000000        0x0 build/default/debug/_ext/1688732426/system_interrupt.o
 .reginfo       0x00000000       0x18 build/default/debug/_ext/1688732426/system_interrupt.o
 .text          0x00000000        0x0 build/default/debug/_ext/1688732426/system_exceptions.o
 .data          0x00000000        0x0 build/default/debug/_ext/1688732426/system_exceptions.o
 .bss           0x00000000        0x0 build/default/debug/_ext/1688732426/system_exceptions.o
 .reginfo       0x00000000       0x18 build/default/debug/_ext/1688732426/system_exceptions.o
 .text          0x00000000        0x0 build/default/debug/_ext/1688732426/system_tasks.o
 .data          0x00000000        0x0 build/default/debug/_ext/1688732426/system_tasks.o
 .bss           0x00000000        0x0 build/default/debug/_ext/1688732426/system_tasks.o
 .reginfo       0x00000000       0x18 build/default/debug/_ext/1688732426/system_tasks.o
 .text          0x00000000        0x0 build/default/debug/_ext/1688732426/system_interrupt_a.o
 .data          0x00000000        0x0 build/default/debug/_ext/1688732426/system_interrupt_a.o
 .bss           0x00000000        0x0 build/default/debug/_ext/1688732426/system_interrupt_a.o
 .reginfo       0x00000000       0x18 build/default/debug/_ext/1688732426/system_interrupt_a.o
 .text          0x00000000        0x0 build/default/debug/_ext/1688732426/rtos_hooks.o
 .data          0x00000000        0x0 build/default/debug/_ext/1688732426/rtos_hooks.o
 .bss           0x00000000        0x0 build/default/debug/_ext/1688732426/rtos_hooks.o
 .reginfo       0x00000000       0x18 build/default/debug/_ext/1688732426/rtos_hooks.o
 .text          0x00000000        0x0 build/default/debug/_ext/1360937237/app.o
 .bss           0x00000000        0x0 build/default/debug/_ext/1360937237/app.o
 .reginfo       0x00000000       0x18 build/default/debug/_ext/1360937237/app.o
 .text.nRF24L01p_PTX_config
                0x00000000       0x7c build/default/debug/_ext/1360937237/app.o
 .text          0x00000000        0x0 build/default/debug/_ext/1360937237/main.o
 .data          0x00000000        0x0 build/default/debug/_ext/1360937237/main.o
 .bss           0x00000000        0x0 build/default/debug/_ext/1360937237/main.o
 .reginfo       0x00000000       0x18 build/default/debug/_ext/1360937237/main.o
 .text          0x00000000        0x0 build/default/debug/_ext/1890346972/bsp_sys_init.o
 .data          0x00000000        0x0 build/default/debug/_ext/1890346972/bsp_sys_init.o
 .bss           0x00000000        0x0 build/default/debug/_ext/1890346972/bsp_sys_init.o
 .reginfo       0x00000000       0x18 build/default/debug/_ext/1890346972/bsp_sys_init.o
 .text.BSP_LEDStateSet
                0x00000000       0x38 build/default/debug/_ext/1890346972/bsp_sys_init.o
 .text.BSP_LEDOn
                0x00000000       0x1c build/default/debug/_ext/1890346972/bsp_sys_init.o
 .text.BSP_LEDOff
                0x00000000       0x1c build/default/debug/_ext/1890346972/bsp_sys_init.o
 .text.BSP_LEDStateGet
                0x00000000       0x20 build/default/debug/_ext/1890346972/bsp_sys_init.o
 .text.BSP_LEDToggle
                0x00000000       0x1c build/default/debug/_ext/1890346972/bsp_sys_init.o
 .text.BSP_SwitchStateGet
                0x00000000       0x20 build/default/debug/_ext/1890346972/bsp_sys_init.o
 .text.BSP_USBVBUSSwitchOverCurrentDetect
                0x00000000        0x8 build/default/debug/_ext/1890346972/bsp_sys_init.o
 .text.BSP_USBVBUSPowerEnable
                0x00000000       0x34 build/default/debug/_ext/1890346972/bsp_sys_init.o
 .text          0x00000000        0x0 build/default/debug/_ext/568870469/drv_spi.o
 .reginfo       0x00000000       0x18 build/default/debug/_ext/568870469/drv_spi.o
 .text.DRV_SPI_Deinitialize
                0x00000000      0x104 build/default/debug/_ext/568870469/drv_spi.o
 .text.DRV_SPI_Status
                0x00000000        0x8 build/default/debug/_ext/568870469/drv_spi.o
 .text.DRV_SPI_Close
                0x00000000      0x204 build/default/debug/_ext/568870469/drv_spi.o
 .text.DRV_SPI_BufferAddRead2
                0x00000000      0x188 build/default/debug/_ext/568870469/drv_spi.o
 .text.DRV_SPI_BufferAddWrite2
                0x00000000      0x16c build/default/debug/_ext/568870469/drv_spi.o
 .text.DRV_SPI_BufferAddRead
                0x00000000       0x24 build/default/debug/_ext/568870469/drv_spi.o
 .text.DRV_SPI_BufferAddWrite
                0x00000000       0x24 build/default/debug/_ext/568870469/drv_spi.o
 .text.DRV_SPI_BufferAddWriteRead
                0x00000000       0x34 build/default/debug/_ext/568870469/drv_spi.o
 .text.DRV_SPI_BufferStatus
                0x00000000        0x8 build/default/debug/_ext/568870469/drv_spi.o
 .text          0x00000000        0x0 build/default/debug/_ext/465164171/drv_spi_sys_queue_fifo.o
 .data          0x00000000        0x0 build/default/debug/_ext/465164171/drv_spi_sys_queue_fifo.o
 .bss           0x00000000        0x0 build/default/debug/_ext/465164171/drv_spi_sys_queue_fifo.o
 .reginfo       0x00000000       0x18 build/default/debug/_ext/465164171/drv_spi_sys_queue_fifo.o
 .text.DRV_SPI_SYS_QUEUE_DestroyQueue
                0x00000000       0xb0 build/default/debug/_ext/465164171/drv_spi_sys_queue_fifo.o
 .text.DRV_SPI_SYS_QUEUE_Peek
                0x00000000       0x44 build/default/debug/_ext/465164171/drv_spi_sys_queue_fifo.o
 .text.DRV_SPI_SYS_QUEUE_Lock
                0x00000000       0x1c build/default/debug/_ext/465164171/drv_spi_sys_queue_fifo.o
 .text.DRV_SPI_SYS_QUEUE_Unlock
                0x00000000       0x1c build/default/debug/_ext/465164171/drv_spi_sys_queue_fifo.o
 .text.DRV_SPI_SYS_QUEUE_CreateQueueLock
                0x00000000       0x1c build/default/debug/_ext/465164171/drv_spi_sys_queue_fifo.o
 .text.DRV_SPI_SYS_QUEUE_DestroyQueueLock
                0x00000000       0x58 build/default/debug/_ext/465164171/drv_spi_sys_queue_fifo.o
 .text.DRV_SPI_SYS_QUEUE_FreeElementLock
                0x00000000       0x60 build/default/debug/_ext/465164171/drv_spi_sys_queue_fifo.o
 .text.DRV_SPI_SYS_QUEUE_DequeueLock
                0x00000000       0x60 build/default/debug/_ext/465164171/drv_spi_sys_queue_fifo.o
 .text.DRV_SPI_SYS_QUEUE_QueueManagerStatus
                0x00000000        0x8 build/default/debug/_ext/465164171/drv_spi_sys_queue_fifo.o
 .text.DRV_SPI_SYS_QUEUE_QueueStatus
                0x00000000        0x8 build/default/debug/_ext/465164171/drv_spi_sys_queue_fifo.o
 .text._DRV_SPI_SYS_QUEUE_LockQueueManager
                0x00000000        0x8 build/default/debug/_ext/465164171/drv_spi_sys_queue_fifo.o
 .text._DRV_SPI_SYS_QUEUE_UnlockQueueManager
                0x00000000        0x8 build/default/debug/_ext/465164171/drv_spi_sys_queue_fifo.o
 .text          0x00000000        0x0 build/default/debug/_ext/260586732/drv_usart.o
 .data          0x00000000        0x0 build/default/debug/_ext/260586732/drv_usart.o
 .bss           0x00000000        0x0 build/default/debug/_ext/260586732/drv_usart.o
 .reginfo       0x00000000       0x18 build/default/debug/_ext/260586732/drv_usart.o
 .text.DRV_USART_Deinitialize
                0x00000000      0x18c build/default/debug/_ext/260586732/drv_usart.o
 .text.DRV_USART_Status
                0x00000000       0x30 build/default/debug/_ext/260586732/drv_usart.o
 .text.DRV_USART_ByteTransmitCallbackSet
                0x00000000       0x18 build/default/debug/_ext/260586732/drv_usart.o
 .text.DRV_USART_ByteReceiveCallbackSet
                0x00000000       0x18 build/default/debug/_ext/260586732/drv_usart.o
 .text.DRV_USART_ByteErrorCallbackSet
                0x00000000       0x18 build/default/debug/_ext/260586732/drv_usart.o
 .text.DRV_USART_ErrorGet
                0x00000000       0x30 build/default/debug/_ext/260586732/drv_usart.o
 .text.DRV_USART_BaudSet
                0x00000000      0x43c build/default/debug/_ext/260586732/drv_usart.o
 .text.DRV_USART_LineControlSet
                0x00000000      0x2c0 build/default/debug/_ext/260586732/drv_usart.o
 .text.DRV_USART_ClientStatus
                0x00000000       0x28 build/default/debug/_ext/260586732/drv_usart.o
 .text.DRV_USART_TransferStatus
                0x00000000      0x238 build/default/debug/_ext/260586732/drv_usart.o
 .text._DRV_USART_ClientBufferQueueObjectsRemove
                0x00000000      0x228 build/default/debug/_ext/260586732/drv_usart.o
 .text.DRV_USART_Close
                0x00000000       0x9c build/default/debug/_ext/260586732/drv_usart.o
 .text._DRV_USART_ByteTransmitTasks
                0x00000000       0x80 build/default/debug/_ext/260586732/drv_usart.o
 .text._DRV_USART_ByteReceiveTasks
                0x00000000       0x74 build/default/debug/_ext/260586732/drv_usart.o
 .text._DRV_USART_ByteErrorTasks
                0x00000000       0x74 build/default/debug/_ext/260586732/drv_usart.o
 .text          0x00000000        0x0 build/default/debug/_ext/260586732/drv_usart_read_write.o
 .data          0x00000000        0x0 build/default/debug/_ext/260586732/drv_usart_read_write.o
 .bss           0x00000000        0x0 build/default/debug/_ext/260586732/drv_usart_read_write.o
 .reginfo       0x00000000       0x18 build/default/debug/_ext/260586732/drv_usart_read_write.o
 .text.DRV_USART_Write
                0x00000000      0x47c build/default/debug/_ext/260586732/drv_usart_read_write.o
 .text          0x00000000        0x0 build/default/debug/_ext/24337685/osal_freertos.o
 .data          0x00000000        0x0 build/default/debug/_ext/24337685/osal_freertos.o
 .bss           0x00000000        0x0 build/default/debug/_ext/24337685/osal_freertos.o
 .reginfo       0x00000000       0x18 build/default/debug/_ext/24337685/osal_freertos.o
 .text.OSAL_CRIT_Enter
                0x00000000       0x48 build/default/debug/_ext/24337685/osal_freertos.o
 .text.OSAL_CRIT_Leave
                0x00000000       0x44 build/default/debug/_ext/24337685/osal_freertos.o
 .text.OSAL_SEM_GetCount
                0x00000000       0x2c build/default/debug/_ext/24337685/osal_freertos.o
 .text.OSAL_MUTEX_Delete
                0x00000000       0x3c build/default/debug/_ext/24337685/osal_freertos.o
 .rodata        0x00000000        0xc build/default/debug/_ext/24337685/osal_freertos.o
 .text.OSAL_Name
                0x00000000        0xc build/default/debug/_ext/24337685/osal_freertos.o
 .text.OSAL_Initialize
                0x00000000        0x8 build/default/debug/_ext/24337685/osal_freertos.o
 .text          0x00000000        0x0 build/default/debug/_ext/1271179505/sys_devcon.o
 .data          0x00000000        0x0 build/default/debug/_ext/1271179505/sys_devcon.o
 .bss           0x00000000        0x0 build/default/debug/_ext/1271179505/sys_devcon.o
 .reginfo       0x00000000       0x18 build/default/debug/_ext/1271179505/sys_devcon.o
 .text.SYS_DEVCON_Reinitialize
                0x00000000       0x10 build/default/debug/_ext/1271179505/sys_devcon.o
 .text.SYS_DEVCON_Deinitialize
                0x00000000        0x8 build/default/debug/_ext/1271179505/sys_devcon.o
 .text.SYS_DEVCON_Status
                0x00000000        0x8 build/default/debug/_ext/1271179505/sys_devcon.o
 .text.SYS_DEVCON_JTAGDisable
                0x00000000       0x1c build/default/debug/_ext/1271179505/sys_devcon.o
 .text.SYS_DEVCON_TraceEnable
                0x00000000       0x18 build/default/debug/_ext/1271179505/sys_devcon.o
 .text.SYS_DEVCON_TraceDisable
                0x00000000       0x1c build/default/debug/_ext/1271179505/sys_devcon.o
 .text.SYS_DEVCON_PowerModeEnter
                0x00000000       0x54 build/default/debug/_ext/1271179505/sys_devcon.o
 .text          0x00000000        0x0 build/default/debug/_ext/1271179505/sys_devcon_pic32mx.o
 .data          0x00000000        0x0 build/default/debug/_ext/1271179505/sys_devcon_pic32mx.o
 .bss           0x00000000        0x0 build/default/debug/_ext/1271179505/sys_devcon_pic32mx.o
 .reginfo       0x00000000       0x18 build/default/debug/_ext/1271179505/sys_devcon_pic32mx.o
 .text          0x00000000        0x0 build/default/debug/_ext/122796885/sys_int_pic32.o
 .data          0x00000000        0x0 build/default/debug/_ext/122796885/sys_int_pic32.o
 .bss           0x00000000        0x0 build/default/debug/_ext/122796885/sys_int_pic32.o
 .reginfo       0x00000000       0x18 build/default/debug/_ext/122796885/sys_int_pic32.o
 .text.SYS_INT_StatusGetAndDisable
                0x00000000       0x1c build/default/debug/_ext/122796885/sys_int_pic32.o
 .text.SYS_INT_StatusRestore
                0x00000000       0x1c build/default/debug/_ext/122796885/sys_int_pic32.o
 .text.SYS_INT_Disable
                0x00000000       0x20 build/default/debug/_ext/122796885/sys_int_pic32.o
 .text          0x00000000        0x0 build/default/debug/_ext/1856876499/heap_1.o
 .data          0x00000000        0x0 build/default/debug/_ext/1856876499/heap_1.o
 .reginfo       0x00000000       0x18 build/default/debug/_ext/1856876499/heap_1.o
 .text.vPortInitialiseBlocks
                0x00000000        0x8 build/default/debug/_ext/1856876499/heap_1.o
 .text.xPortGetFreeHeapSize
                0x00000000       0x10 build/default/debug/_ext/1856876499/heap_1.o
 .text          0x00000000        0x0 build/default/debug/_ext/12131622/port.o
 .data          0x00000000        0x0 build/default/debug/_ext/12131622/port.o
 .reginfo       0x00000000       0x18 build/default/debug/_ext/12131622/port.o
 .text.vPortEndScheduler
                0x00000000        0x8 build/default/debug/_ext/12131622/port.o
 .data          0x00000000        0x0 build/default/debug/_ext/12131622/port_asm.o
 .bss           0x00000000        0x0 build/default/debug/_ext/12131622/port_asm.o
 .reginfo       0x00000000       0x18 build/default/debug/_ext/12131622/port_asm.o
 .text          0x00000000        0x0 build/default/debug/_ext/1128951024/croutine.o
 .data          0x00000000        0x0 build/default/debug/_ext/1128951024/croutine.o
 .bss           0x00000000        0x0 build/default/debug/_ext/1128951024/croutine.o
 .reginfo       0x00000000       0x18 build/default/debug/_ext/1128951024/croutine.o
 .text          0x00000000        0x0 build/default/debug/_ext/1128951024/list.o
 .data          0x00000000        0x0 build/default/debug/_ext/1128951024/list.o
 .bss           0x00000000        0x0 build/default/debug/_ext/1128951024/list.o
 .reginfo       0x00000000       0x18 build/default/debug/_ext/1128951024/list.o
 .text          0x00000000        0x0 build/default/debug/_ext/1128951024/queue.o
 .data          0x00000000        0x0 build/default/debug/_ext/1128951024/queue.o
 .bss           0x00000000        0x0 build/default/debug/_ext/1128951024/queue.o
 .reginfo       0x00000000       0x18 build/default/debug/_ext/1128951024/queue.o
 .text.xQueueGenericSendFromISR
                0x00000000       0xe8 build/default/debug/_ext/1128951024/queue.o
 .text.xQueueReceiveFromISR
                0x00000000       0xd4 build/default/debug/_ext/1128951024/queue.o
 .text.xQueuePeekFromISR
                0x00000000       0x74 build/default/debug/_ext/1128951024/queue.o
 .text.uxQueueMessagesWaiting
                0x00000000       0x34 build/default/debug/_ext/1128951024/queue.o
 .text.uxQueueSpacesAvailable
                0x00000000       0x38 build/default/debug/_ext/1128951024/queue.o
 .text.uxQueueMessagesWaitingFromISR
                0x00000000        0xc build/default/debug/_ext/1128951024/queue.o
 .text.xQueueIsQueueEmptyFromISR
                0x00000000        0xc build/default/debug/_ext/1128951024/queue.o
 .text.xQueueIsQueueFullFromISR
                0x00000000       0x14 build/default/debug/_ext/1128951024/queue.o
 .text          0x00000000        0x0 build/default/debug/_ext/1128951024/tasks.o
 .data          0x00000000        0x0 build/default/debug/_ext/1128951024/tasks.o
 .bss           0x00000000        0x0 build/default/debug/_ext/1128951024/tasks.o
 .reginfo       0x00000000       0x18 build/default/debug/_ext/1128951024/tasks.o
 .text.uxTaskPriorityGetFromISR
                0x00000000       0x3c build/default/debug/_ext/1128951024/tasks.o
 .text.prvTaskIsTaskSuspended
                0x00000000       0x38 build/default/debug/_ext/1128951024/tasks.o
 .text.xTaskResumeFromISR
                0x00000000       0xdc build/default/debug/_ext/1128951024/tasks.o
 .text.vTaskEndScheduler
                0x00000000       0x3c build/default/debug/_ext/1128951024/tasks.o
 .text.xTaskGetTickCountFromISR
                0x00000000        0xc build/default/debug/_ext/1128951024/tasks.o
 .text.uxTaskGetNumberOfTasks
                0x00000000        0xc build/default/debug/_ext/1128951024/tasks.o
 .text.xTaskCallApplicationTaskHook
                0x00000000       0x38 build/default/debug/_ext/1128951024/tasks.o
 .text.xTaskRemoveFromUnorderedEventList
                0x00000000       0x9c build/default/debug/_ext/1128951024/tasks.o
 .text.vTaskPlaceOnUnorderedEventList
                0x00000000       0xa4 build/default/debug/_ext/1128951024/tasks.o
 .text.xTaskGetCurrentTaskHandle
                0x00000000        0xc build/default/debug/_ext/1128951024/tasks.o
 .text.vTaskDelete
                0x00000000      0x110 build/default/debug/_ext/1128951024/tasks.o
 .text.uxTaskPriorityGet
                0x00000000       0x38 build/default/debug/_ext/1128951024/tasks.o
 .text.vTaskPrioritySet
                0x00000000      0x15c build/default/debug/_ext/1128951024/tasks.o
 .text.vTaskSuspend
                0x00000000      0x138 build/default/debug/_ext/1128951024/tasks.o
 .text.vTaskResume
                0x00000000       0xc4 build/default/debug/_ext/1128951024/tasks.o
 .text.vTaskSetApplicationTaskTag
                0x00000000       0x44 build/default/debug/_ext/1128951024/tasks.o
 .text.xTaskGetApplicationTaskTag
                0x00000000       0x3c build/default/debug/_ext/1128951024/tasks.o
 .text.uxTaskResetEventItemValue
                0x00000000       0x24 build/default/debug/_ext/1128951024/tasks.o
 .text.xTaskNotifyWait
                0x00000000      0x160 build/default/debug/_ext/1128951024/tasks.o
 .text.xTaskGenericNotify
                0x00000000      0x168 build/default/debug/_ext/1128951024/tasks.o
 .text.xTaskGenericNotifyFromISR
                0x00000000      0x198 build/default/debug/_ext/1128951024/tasks.o
 .text.xTaskNotifyStateClear
                0x00000000       0x5c build/default/debug/_ext/1128951024/tasks.o
 .text          0x00000000        0x0 build/default/debug/_ext/1128951024/timers.o
 .data          0x00000000        0x0 build/default/debug/_ext/1128951024/timers.o
 .bss           0x00000000        0x0 build/default/debug/_ext/1128951024/timers.o
 .reginfo       0x00000000       0x18 build/default/debug/_ext/1128951024/timers.o
 .text          0x00000000        0x0 build/default/debug/_ext/1128951024/event_groups.o
 .data          0x00000000        0x0 build/default/debug/_ext/1128951024/event_groups.o
 .bss           0x00000000        0x0 build/default/debug/_ext/1128951024/event_groups.o
 .reginfo       0x00000000       0x18 build/default/debug/_ext/1128951024/event_groups.o
 .text.xEventGroupCreate
                0x00000000       0x3c build/default/debug/_ext/1128951024/event_groups.o
 .text.xEventGroupWaitBits
                0x00000000      0x148 build/default/debug/_ext/1128951024/event_groups.o
 .text.xEventGroupClearBits
                0x00000000       0x50 build/default/debug/_ext/1128951024/event_groups.o
 .text.xEventGroupGetBitsFromISR
                0x00000000       0x34 build/default/debug/_ext/1128951024/event_groups.o
 .text.xEventGroupSetBits
                0x00000000       0xfc build/default/debug/_ext/1128951024/event_groups.o
 .text.xEventGroupSync
                0x00000000      0x110 build/default/debug/_ext/1128951024/event_groups.o
 .text.vEventGroupDelete
                0x00000000       0x58 build/default/debug/_ext/1128951024/event_groups.o
 .text.vEventGroupSetBitsCallback
                0x00000000       0x1c build/default/debug/_ext/1128951024/event_groups.o
 .text.vEventGroupClearBitsCallback
                0x00000000       0x1c build/default/debug/_ext/1128951024/event_groups.o
 .text          0x00000000        0x0 c:/program files/microchip/xc32/v1.42/bin/bin/../../lib/gcc/pic32mx/4.8.3/../../../../pic32mx/lib/./proc/32MX795F512L\default_isr_vectors.o
 .data          0x00000000        0x0 c:/program files/microchip/xc32/v1.42/bin/bin/../../lib/gcc/pic32mx/4.8.3/../../../../pic32mx/lib/./proc/32MX795F512L\default_isr_vectors.o
 .bss           0x00000000        0x0 c:/program files/microchip/xc32/v1.42/bin/bin/../../lib/gcc/pic32mx/4.8.3/../../../../pic32mx/lib/./proc/32MX795F512L\default_isr_vectors.o
 .reginfo       0x00000000       0x18 c:/program files/microchip/xc32/v1.42/bin/bin/../../lib/gcc/pic32mx/4.8.3/../../../../pic32mx/lib/./proc/32MX795F512L\default_isr_vectors.o
 .discard       0x00000000       0xd0 c:/program files/microchip/xc32/v1.42/bin/bin/../../lib/gcc/pic32mx/4.8.3/../../../../pic32mx/lib/./proc/32MX795F512L\default_isr_vectors.o
 .data          0x00000000        0x0 c:/program files/microchip/xc32/v1.42/bin/bin/../../lib/gcc/pic32mx/4.8.3/../../../../pic32mx/lib\pic32_software_reset.o
 .bss           0x00000000        0x0 c:/program files/microchip/xc32/v1.42/bin/bin/../../lib/gcc/pic32mx/4.8.3/../../../../pic32mx/lib\pic32_software_reset.o
 .reginfo       0x00000000       0x18 c:/program files/microchip/xc32/v1.42/bin/bin/../../lib/gcc/pic32mx/4.8.3/../../../../pic32mx/lib\pic32_software_reset.o
 .text          0x00000000        0x0 c:/program files/microchip/xc32/v1.42/bin/bin/../../lib/gcc/pic32mx/4.8.3/../../../../pic32mx/lib/./proc/32MX795F512L\processor.o
 .data          0x00000000        0x0 c:/program files/microchip/xc32/v1.42/bin/bin/../../lib/gcc/pic32mx/4.8.3/../../../../pic32mx/lib/./proc/32MX795F512L\processor.o
 .bss           0x00000000        0x0 c:/program files/microchip/xc32/v1.42/bin/bin/../../lib/gcc/pic32mx/4.8.3/../../../../pic32mx/lib/./proc/32MX795F512L\processor.o
 .reginfo       0x00000000       0x18 c:/program files/microchip/xc32/v1.42/bin/bin/../../lib/gcc/pic32mx/4.8.3/../../../../pic32mx/lib/./proc/32MX795F512L\processor.o
 .data          0x00000000        0x0 c:/program files/microchip/xc32/v1.42/bin/bin/../../lib/gcc/pic32mx/4.8.3/../../../../pic32mx/lib\libpic32.a(memcpy.o)
 .bss           0x00000000        0x0 c:/program files/microchip/xc32/v1.42/bin/bin/../../lib/gcc/pic32mx/4.8.3/../../../../pic32mx/lib\libpic32.a(memcpy.o)
 .reginfo       0x00000000       0x18 c:/program files/microchip/xc32/v1.42/bin/bin/../../lib/gcc/pic32mx/4.8.3/../../../../pic32mx/lib\libpic32.a(memcpy.o)
 .data          0x00000000        0x0 c:/program files/microchip/xc32/v1.42/bin/bin/../../lib/gcc/pic32mx/4.8.3/../../../../pic32mx/lib\libpic32.a(memset.o)
 .bss           0x00000000        0x0 c:/program files/microchip/xc32/v1.42/bin/bin/../../lib/gcc/pic32mx/4.8.3/../../../../pic32mx/lib\libpic32.a(memset.o)
 .reginfo       0x00000000       0x18 c:/program files/microchip/xc32/v1.42/bin/bin/../../lib/gcc/pic32mx/4.8.3/../../../../pic32mx/lib\libpic32.a(memset.o)
 .text          0x00000000        0x0 c:/program files/microchip/xc32/v1.42/bin/bin/../../lib/gcc/pic32mx/4.8.3/../../../../pic32mx/lib\libpic32.a(default-bootstrap-exception-handler.o)
 .data          0x00000000        0x0 c:/program files/microchip/xc32/v1.42/bin/bin/../../lib/gcc/pic32mx/4.8.3/../../../../pic32mx/lib\libpic32.a(default-bootstrap-exception-handler.o)
 .bss           0x00000000        0x0 c:/program files/microchip/xc32/v1.42/bin/bin/../../lib/gcc/pic32mx/4.8.3/../../../../pic32mx/lib\libpic32.a(default-bootstrap-exception-handler.o)
 .reginfo       0x00000000       0x18 c:/program files/microchip/xc32/v1.42/bin/bin/../../lib/gcc/pic32mx/4.8.3/../../../../pic32mx/lib\libpic32.a(default-bootstrap-exception-handler.o)
 .text          0x00000000        0x0 c:/program files/microchip/xc32/v1.42/bin/bin/../../lib/gcc/pic32mx/4.8.3/../../../../pic32mx/lib\libpic32.a(default-on-reset.o)
 .data          0x00000000        0x0 c:/program files/microchip/xc32/v1.42/bin/bin/../../lib/gcc/pic32mx/4.8.3/../../../../pic32mx/lib\libpic32.a(default-on-reset.o)
 .bss           0x00000000        0x0 c:/program files/microchip/xc32/v1.42/bin/bin/../../lib/gcc/pic32mx/4.8.3/../../../../pic32mx/lib\libpic32.a(default-on-reset.o)
 .reginfo       0x00000000       0x18 c:/program files/microchip/xc32/v1.42/bin/bin/../../lib/gcc/pic32mx/4.8.3/../../../../pic32mx/lib\libpic32.a(default-on-reset.o)
 .text          0x00000000        0x0 c:/program files/microchip/xc32/v1.42/bin/bin/../../lib/gcc/pic32mx/4.8.3/../../../../pic32mx/lib\libpic32.a(default-on-bootstrap.o)
 .data          0x00000000        0x0 c:/program files/microchip/xc32/v1.42/bin/bin/../../lib/gcc/pic32mx/4.8.3/../../../../pic32mx/lib\libpic32.a(default-on-bootstrap.o)
 .bss           0x00000000        0x0 c:/program files/microchip/xc32/v1.42/bin/bin/../../lib/gcc/pic32mx/4.8.3/../../../../pic32mx/lib\libpic32.a(default-on-bootstrap.o)
 .reginfo       0x00000000       0x18 c:/program files/microchip/xc32/v1.42/bin/bin/../../lib/gcc/pic32mx/4.8.3/../../../../pic32mx/lib\libpic32.a(default-on-bootstrap.o)
 .data          0x00000000        0x0 c:/program files/microchip/xc32/v1.42/bin/bin/../../lib/gcc/pic32mx/4.8.3/../../../../pic32mx/lib\libpic32.a(default-nmi-handler.o)
 .bss           0x00000000        0x0 c:/program files/microchip/xc32/v1.42/bin/bin/../../lib/gcc/pic32mx/4.8.3/../../../../pic32mx/lib\libpic32.a(default-nmi-handler.o)
 .reginfo       0x00000000       0x18 c:/program files/microchip/xc32/v1.42/bin/bin/../../lib/gcc/pic32mx/4.8.3/../../../../pic32mx/lib\libpic32.a(default-nmi-handler.o)
 .text          0x00000000        0x0 c:/program files/microchip/xc32/v1.42/bin/bin/../../lib/gcc/pic32mx/4.8.3/../../../../pic32mx/lib\libpic32.a(general-exception.o)
 .data          0x00000000        0x0 c:/program files/microchip/xc32/v1.42/bin/bin/../../lib/gcc/pic32mx/4.8.3/../../../../pic32mx/lib\libpic32.a(general-exception.o)
 .bss           0x00000000        0x0 c:/program files/microchip/xc32/v1.42/bin/bin/../../lib/gcc/pic32mx/4.8.3/../../../../pic32mx/lib\libpic32.a(general-exception.o)
 .reginfo       0x00000000       0x18 c:/program files/microchip/xc32/v1.42/bin/bin/../../lib/gcc/pic32mx/4.8.3/../../../../pic32mx/lib\libpic32.a(general-exception.o)
 .text          0x00000000        0x0 c:/program files/microchip/xc32/v1.42/bin/bin/../../lib/gcc/pic32mx/4.8.3/../../../../pic32mx/lib\libpic32.a(vector0.o)
 .data          0x00000000        0x0 c:/program files/microchip/xc32/v1.42/bin/bin/../../lib/gcc/pic32mx/4.8.3/../../../../pic32mx/lib\libpic32.a(vector0.o)
 .bss           0x00000000        0x0 c:/program files/microchip/xc32/v1.42/bin/bin/../../lib/gcc/pic32mx/4.8.3/../../../../pic32mx/lib\libpic32.a(vector0.o)
 .reginfo       0x00000000       0x18 c:/program files/microchip/xc32/v1.42/bin/bin/../../lib/gcc/pic32mx/4.8.3/../../../../pic32mx/lib\libpic32.a(vector0.o)
 .text          0x00000000        0x0 c:/program files/microchip/xc32/v1.42/bin/bin/../../lib/gcc/pic32mx/4.8.3/../../../../pic32mx/lib\libpic32.a(vector2.o)
 .data          0x00000000        0x0 c:/program files/microchip/xc32/v1.42/bin/bin/../../lib/gcc/pic32mx/4.8.3/../../../../pic32mx/lib\libpic32.a(vector2.o)
 .bss           0x00000000        0x0 c:/program files/microchip/xc32/v1.42/bin/bin/../../lib/gcc/pic32mx/4.8.3/../../../../pic32mx/lib\libpic32.a(vector2.o)
 .reginfo       0x00000000       0x18 c:/program files/microchip/xc32/v1.42/bin/bin/../../lib/gcc/pic32mx/4.8.3/../../../../pic32mx/lib\libpic32.a(vector2.o)
 .text          0x00000000        0x0 c:/program files/microchip/xc32/v1.42/bin/bin/../../lib/gcc/pic32mx/4.8.3/../../../../pic32mx/lib\libpic32.a(vector3.o)
 .data          0x00000000        0x0 c:/program files/microchip/xc32/v1.42/bin/bin/../../lib/gcc/pic32mx/4.8.3/../../../../pic32mx/lib\libpic32.a(vector3.o)
 .bss           0x00000000        0x0 c:/program files/microchip/xc32/v1.42/bin/bin/../../lib/gcc/pic32mx/4.8.3/../../../../pic32mx/lib\libpic32.a(vector3.o)
 .reginfo       0x00000000       0x18 c:/program files/microchip/xc32/v1.42/bin/bin/../../lib/gcc/pic32mx/4.8.3/../../../../pic32mx/lib\libpic32.a(vector3.o)
 .text          0x00000000        0x0 c:/program files/microchip/xc32/v1.42/bin/bin/../../lib/gcc/pic32mx/4.8.3/../../../../pic32mx/lib\libpic32.a(vector5.o)
 .data          0x00000000        0x0 c:/program files/microchip/xc32/v1.42/bin/bin/../../lib/gcc/pic32mx/4.8.3/../../../../pic32mx/lib\libpic32.a(vector5.o)
 .bss           0x00000000        0x0 c:/program files/microchip/xc32/v1.42/bin/bin/../../lib/gcc/pic32mx/4.8.3/../../../../pic32mx/lib\libpic32.a(vector5.o)
 .reginfo       0x00000000       0x18 c:/program files/microchip/xc32/v1.42/bin/bin/../../lib/gcc/pic32mx/4.8.3/../../../../pic32mx/lib\libpic32.a(vector5.o)
 .text          0x00000000        0x0 c:/program files/microchip/xc32/v1.42/bin/bin/../../lib/gcc/pic32mx/4.8.3/../../../../pic32mx/lib\libpic32.a(vector6.o)
 .data          0x00000000        0x0 c:/program files/microchip/xc32/v1.42/bin/bin/../../lib/gcc/pic32mx/4.8.3/../../../../pic32mx/lib\libpic32.a(vector6.o)
 .bss           0x00000000        0x0 c:/program files/microchip/xc32/v1.42/bin/bin/../../lib/gcc/pic32mx/4.8.3/../../../../pic32mx/lib\libpic32.a(vector6.o)
 .reginfo       0x00000000       0x18 c:/program files/microchip/xc32/v1.42/bin/bin/../../lib/gcc/pic32mx/4.8.3/../../../../pic32mx/lib\libpic32.a(vector6.o)
 .text          0x00000000        0x0 c:/program files/microchip/xc32/v1.42/bin/bin/../../lib/gcc/pic32mx/4.8.3/../../../../pic32mx/lib\libpic32.a(vector8.o)
 .data          0x00000000        0x0 c:/program files/microchip/xc32/v1.42/bin/bin/../../lib/gcc/pic32mx/4.8.3/../../../../pic32mx/lib\libpic32.a(vector8.o)
 .bss           0x00000000        0x0 c:/program files/microchip/xc32/v1.42/bin/bin/../../lib/gcc/pic32mx/4.8.3/../../../../pic32mx/lib\libpic32.a(vector8.o)
 .reginfo       0x00000000       0x18 c:/program files/microchip/xc32/v1.42/bin/bin/../../lib/gcc/pic32mx/4.8.3/../../../../pic32mx/lib\libpic32.a(vector8.o)
 .text          0x00000000        0x0 c:/program files/microchip/xc32/v1.42/bin/bin/../../lib/gcc/pic32mx/4.8.3/../../../../pic32mx/lib\libpic32.a(vector9.o)
 .data          0x00000000        0x0 c:/program files/microchip/xc32/v1.42/bin/bin/../../lib/gcc/pic32mx/4.8.3/../../../../pic32mx/lib\libpic32.a(vector9.o)
 .bss           0x00000000        0x0 c:/program files/microchip/xc32/v1.42/bin/bin/../../lib/gcc/pic32mx/4.8.3/../../../../pic32mx/lib\libpic32.a(vector9.o)
 .reginfo       0x00000000       0x18 c:/program files/microchip/xc32/v1.42/bin/bin/../../lib/gcc/pic32mx/4.8.3/../../../../pic32mx/lib\libpic32.a(vector9.o)
 .text          0x00000000        0x0 c:/program files/microchip/xc32/v1.42/bin/bin/../../lib/gcc/pic32mx/4.8.3/../../../../pic32mx/lib\libpic32.a(vector10.o)
 .data          0x00000000        0x0 c:/program files/microchip/xc32/v1.42/bin/bin/../../lib/gcc/pic32mx/4.8.3/../../../../pic32mx/lib\libpic32.a(vector10.o)
 .bss           0x00000000        0x0 c:/program files/microchip/xc32/v1.42/bin/bin/../../lib/gcc/pic32mx/4.8.3/../../../../pic32mx/lib\libpic32.a(vector10.o)
 .reginfo       0x00000000       0x18 c:/program files/microchip/xc32/v1.42/bin/bin/../../lib/gcc/pic32mx/4.8.3/../../../../pic32mx/lib\libpic32.a(vector10.o)
 .text          0x00000000        0x0 c:/program files/microchip/xc32/v1.42/bin/bin/../../lib/gcc/pic32mx/4.8.3/../../../../pic32mx/lib\libpic32.a(vector12.o)
 .data          0x00000000        0x0 c:/program files/microchip/xc32/v1.42/bin/bin/../../lib/gcc/pic32mx/4.8.3/../../../../pic32mx/lib\libpic32.a(vector12.o)
 .bss           0x00000000        0x0 c:/program files/microchip/xc32/v1.42/bin/bin/../../lib/gcc/pic32mx/4.8.3/../../../../pic32mx/lib\libpic32.a(vector12.o)
 .reginfo       0x00000000       0x18 c:/program files/microchip/xc32/v1.42/bin/bin/../../lib/gcc/pic32mx/4.8.3/../../../../pic32mx/lib\libpic32.a(vector12.o)
 .text          0x00000000        0x0 c:/program files/microchip/xc32/v1.42/bin/bin/../../lib/gcc/pic32mx/4.8.3/../../../../pic32mx/lib\libpic32.a(vector13.o)
 .data          0x00000000        0x0 c:/program files/microchip/xc32/v1.42/bin/bin/../../lib/gcc/pic32mx/4.8.3/../../../../pic32mx/lib\libpic32.a(vector13.o)
 .bss           0x00000000        0x0 c:/program files/microchip/xc32/v1.42/bin/bin/../../lib/gcc/pic32mx/4.8.3/../../../../pic32mx/lib\libpic32.a(vector13.o)
 .reginfo       0x00000000       0x18 c:/program files/microchip/xc32/v1.42/bin/bin/../../lib/gcc/pic32mx/4.8.3/../../../../pic32mx/lib\libpic32.a(vector13.o)
 .text          0x00000000        0x0 c:/program files/microchip/xc32/v1.42/bin/bin/../../lib/gcc/pic32mx/4.8.3/../../../../pic32mx/lib\libpic32.a(vector14.o)
 .data          0x00000000        0x0 c:/program files/microchip/xc32/v1.42/bin/bin/../../lib/gcc/pic32mx/4.8.3/../../../../pic32mx/lib\libpic32.a(vector14.o)
 .bss           0x00000000        0x0 c:/program files/microchip/xc32/v1.42/bin/bin/../../lib/gcc/pic32mx/4.8.3/../../../../pic32mx/lib\libpic32.a(vector14.o)
 .reginfo       0x00000000       0x18 c:/program files/microchip/xc32/v1.42/bin/bin/../../lib/gcc/pic32mx/4.8.3/../../../../pic32mx/lib\libpic32.a(vector14.o)
 .text          0x00000000        0x0 c:/program files/microchip/xc32/v1.42/bin/bin/../../lib/gcc/pic32mx/4.8.3/../../../../pic32mx/lib\libpic32.a(vector15.o)
 .data          0x00000000        0x0 c:/program files/microchip/xc32/v1.42/bin/bin/../../lib/gcc/pic32mx/4.8.3/../../../../pic32mx/lib\libpic32.a(vector15.o)
 .bss           0x00000000        0x0 c:/program files/microchip/xc32/v1.42/bin/bin/../../lib/gcc/pic32mx/4.8.3/../../../../pic32mx/lib\libpic32.a(vector15.o)
 .reginfo       0x00000000       0x18 c:/program files/microchip/xc32/v1.42/bin/bin/../../lib/gcc/pic32mx/4.8.3/../../../../pic32mx/lib\libpic32.a(vector15.o)
 .text          0x00000000        0x0 c:/program files/microchip/xc32/v1.42/bin/bin/../../lib/gcc/pic32mx/4.8.3/../../../../pic32mx/lib\libpic32.a(vector16.o)
 .data          0x00000000        0x0 c:/program files/microchip/xc32/v1.42/bin/bin/../../lib/gcc/pic32mx/4.8.3/../../../../pic32mx/lib\libpic32.a(vector16.o)
 .bss           0x00000000        0x0 c:/program files/microchip/xc32/v1.42/bin/bin/../../lib/gcc/pic32mx/4.8.3/../../../../pic32mx/lib\libpic32.a(vector16.o)
 .reginfo       0x00000000       0x18 c:/program files/microchip/xc32/v1.42/bin/bin/../../lib/gcc/pic32mx/4.8.3/../../../../pic32mx/lib\libpic32.a(vector16.o)
 .text          0x00000000        0x0 c:/program files/microchip/xc32/v1.42/bin/bin/../../lib/gcc/pic32mx/4.8.3/../../../../pic32mx/lib\libpic32.a(vector17.o)
 .data          0x00000000        0x0 c:/program files/microchip/xc32/v1.42/bin/bin/../../lib/gcc/pic32mx/4.8.3/../../../../pic32mx/lib\libpic32.a(vector17.o)
 .bss           0x00000000        0x0 c:/program files/microchip/xc32/v1.42/bin/bin/../../lib/gcc/pic32mx/4.8.3/../../../../pic32mx/lib\libpic32.a(vector17.o)
 .reginfo       0x00000000       0x18 c:/program files/microchip/xc32/v1.42/bin/bin/../../lib/gcc/pic32mx/4.8.3/../../../../pic32mx/lib\libpic32.a(vector17.o)
 .text          0x00000000        0x0 c:/program files/microchip/xc32/v1.42/bin/bin/../../lib/gcc/pic32mx/4.8.3/../../../../pic32mx/lib\libpic32.a(vector18.o)
 .data          0x00000000        0x0 c:/program files/microchip/xc32/v1.42/bin/bin/../../lib/gcc/pic32mx/4.8.3/../../../../pic32mx/lib\libpic32.a(vector18.o)
 .bss           0x00000000        0x0 c:/program files/microchip/xc32/v1.42/bin/bin/../../lib/gcc/pic32mx/4.8.3/../../../../pic32mx/lib\libpic32.a(vector18.o)
 .reginfo       0x00000000       0x18 c:/program files/microchip/xc32/v1.42/bin/bin/../../lib/gcc/pic32mx/4.8.3/../../../../pic32mx/lib\libpic32.a(vector18.o)
 .text          0x00000000        0x0 c:/program files/microchip/xc32/v1.42/bin/bin/../../lib/gcc/pic32mx/4.8.3/../../../../pic32mx/lib\libpic32.a(vector19.o)
 .data          0x00000000        0x0 c:/program files/microchip/xc32/v1.42/bin/bin/../../lib/gcc/pic32mx/4.8.3/../../../../pic32mx/lib\libpic32.a(vector19.o)
 .bss           0x00000000        0x0 c:/program files/microchip/xc32/v1.42/bin/bin/../../lib/gcc/pic32mx/4.8.3/../../../../pic32mx/lib\libpic32.a(vector19.o)
 .reginfo       0x00000000       0x18 c:/program files/microchip/xc32/v1.42/bin/bin/../../lib/gcc/pic32mx/4.8.3/../../../../pic32mx/lib\libpic32.a(vector19.o)
 .text          0x00000000        0x0 c:/program files/microchip/xc32/v1.42/bin/bin/../../lib/gcc/pic32mx/4.8.3/../../../../pic32mx/lib\libpic32.a(vector20.o)
 .data          0x00000000        0x0 c:/program files/microchip/xc32/v1.42/bin/bin/../../lib/gcc/pic32mx/4.8.3/../../../../pic32mx/lib\libpic32.a(vector20.o)
 .bss           0x00000000        0x0 c:/program files/microchip/xc32/v1.42/bin/bin/../../lib/gcc/pic32mx/4.8.3/../../../../pic32mx/lib\libpic32.a(vector20.o)
 .reginfo       0x00000000       0x18 c:/program files/microchip/xc32/v1.42/bin/bin/../../lib/gcc/pic32mx/4.8.3/../../../../pic32mx/lib\libpic32.a(vector20.o)
 .text          0x00000000        0x0 c:/program files/microchip/xc32/v1.42/bin/bin/../../lib/gcc/pic32mx/4.8.3/../../../../pic32mx/lib\libpic32.a(vector21.o)
 .data          0x00000000        0x0 c:/program files/microchip/xc32/v1.42/bin/bin/../../lib/gcc/pic32mx/4.8.3/../../../../pic32mx/lib\libpic32.a(vector21.o)
 .bss           0x00000000        0x0 c:/program files/microchip/xc32/v1.42/bin/bin/../../lib/gcc/pic32mx/4.8.3/../../../../pic32mx/lib\libpic32.a(vector21.o)
 .reginfo       0x00000000       0x18 c:/program files/microchip/xc32/v1.42/bin/bin/../../lib/gcc/pic32mx/4.8.3/../../../../pic32mx/lib\libpic32.a(vector21.o)
 .text          0x00000000        0x0 c:/program files/microchip/xc32/v1.42/bin/bin/../../lib/gcc/pic32mx/4.8.3/../../../../pic32mx/lib\libpic32.a(vector22.o)
 .data          0x00000000        0x0 c:/program files/microchip/xc32/v1.42/bin/bin/../../lib/gcc/pic32mx/4.8.3/../../../../pic32mx/lib\libpic32.a(vector22.o)
 .bss           0x00000000        0x0 c:/program files/microchip/xc32/v1.42/bin/bin/../../lib/gcc/pic32mx/4.8.3/../../../../pic32mx/lib\libpic32.a(vector22.o)
 .reginfo       0x00000000       0x18 c:/program files/microchip/xc32/v1.42/bin/bin/../../lib/gcc/pic32mx/4.8.3/../../../../pic32mx/lib\libpic32.a(vector22.o)
 .text          0x00000000        0x0 c:/program files/microchip/xc32/v1.42/bin/bin/../../lib/gcc/pic32mx/4.8.3/../../../../pic32mx/lib\libpic32.a(vector25.o)
 .data          0x00000000        0x0 c:/program files/microchip/xc32/v1.42/bin/bin/../../lib/gcc/pic32mx/4.8.3/../../../../pic32mx/lib\libpic32.a(vector25.o)
 .bss           0x00000000        0x0 c:/program files/microchip/xc32/v1.42/bin/bin/../../lib/gcc/pic32mx/4.8.3/../../../../pic32mx/lib\libpic32.a(vector25.o)
 .reginfo       0x00000000       0x18 c:/program files/microchip/xc32/v1.42/bin/bin/../../lib/gcc/pic32mx/4.8.3/../../../../pic32mx/lib\libpic32.a(vector25.o)
 .text          0x00000000        0x0 c:/program files/microchip/xc32/v1.42/bin/bin/../../lib/gcc/pic32mx/4.8.3/../../../../pic32mx/lib\libpic32.a(vector26.o)
 .data          0x00000000        0x0 c:/program files/microchip/xc32/v1.42/bin/bin/../../lib/gcc/pic32mx/4.8.3/../../../../pic32mx/lib\libpic32.a(vector26.o)
 .bss           0x00000000        0x0 c:/program files/microchip/xc32/v1.42/bin/bin/../../lib/gcc/pic32mx/4.8.3/../../../../pic32mx/lib\libpic32.a(vector26.o)
 .reginfo       0x00000000       0x18 c:/program files/microchip/xc32/v1.42/bin/bin/../../lib/gcc/pic32mx/4.8.3/../../../../pic32mx/lib\libpic32.a(vector26.o)
 .text          0x00000000        0x0 c:/program files/microchip/xc32/v1.42/bin/bin/../../lib/gcc/pic32mx/4.8.3/../../../../pic32mx/lib\libpic32.a(vector27.o)
 .data          0x00000000        0x0 c:/program files/microchip/xc32/v1.42/bin/bin/../../lib/gcc/pic32mx/4.8.3/../../../../pic32mx/lib\libpic32.a(vector27.o)
 .bss           0x00000000        0x0 c:/program files/microchip/xc32/v1.42/bin/bin/../../lib/gcc/pic32mx/4.8.3/../../../../pic32mx/lib\libpic32.a(vector27.o)
 .reginfo       0x00000000       0x18 c:/program files/microchip/xc32/v1.42/bin/bin/../../lib/gcc/pic32mx/4.8.3/../../../../pic32mx/lib\libpic32.a(vector27.o)
 .text          0x00000000        0x0 c:/program files/microchip/xc32/v1.42/bin/bin/../../lib/gcc/pic32mx/4.8.3/../../../../pic32mx/lib\libpic32.a(vector28.o)
 .data          0x00000000        0x0 c:/program files/microchip/xc32/v1.42/bin/bin/../../lib/gcc/pic32mx/4.8.3/../../../../pic32mx/lib\libpic32.a(vector28.o)
 .bss           0x00000000        0x0 c:/program files/microchip/xc32/v1.42/bin/bin/../../lib/gcc/pic32mx/4.8.3/../../../../pic32mx/lib\libpic32.a(vector28.o)
 .reginfo       0x00000000       0x18 c:/program files/microchip/xc32/v1.42/bin/bin/../../lib/gcc/pic32mx/4.8.3/../../../../pic32mx/lib\libpic32.a(vector28.o)
 .text          0x00000000        0x0 c:/program files/microchip/xc32/v1.42/bin/bin/../../lib/gcc/pic32mx/4.8.3/../../../../pic32mx/lib\libpic32.a(vector29.o)
 .data          0x00000000        0x0 c:/program files/microchip/xc32/v1.42/bin/bin/../../lib/gcc/pic32mx/4.8.3/../../../../pic32mx/lib\libpic32.a(vector29.o)
 .bss           0x00000000        0x0 c:/program files/microchip/xc32/v1.42/bin/bin/../../lib/gcc/pic32mx/4.8.3/../../../../pic32mx/lib\libpic32.a(vector29.o)
 .reginfo       0x00000000       0x18 c:/program files/microchip/xc32/v1.42/bin/bin/../../lib/gcc/pic32mx/4.8.3/../../../../pic32mx/lib\libpic32.a(vector29.o)
 .text          0x00000000        0x0 c:/program files/microchip/xc32/v1.42/bin/bin/../../lib/gcc/pic32mx/4.8.3/../../../../pic32mx/lib\libpic32.a(vector30.o)
 .data          0x00000000        0x0 c:/program files/microchip/xc32/v1.42/bin/bin/../../lib/gcc/pic32mx/4.8.3/../../../../pic32mx/lib\libpic32.a(vector30.o)
 .bss           0x00000000        0x0 c:/program files/microchip/xc32/v1.42/bin/bin/../../lib/gcc/pic32mx/4.8.3/../../../../pic32mx/lib\libpic32.a(vector30.o)
 .reginfo       0x00000000       0x18 c:/program files/microchip/xc32/v1.42/bin/bin/../../lib/gcc/pic32mx/4.8.3/../../../../pic32mx/lib\libpic32.a(vector30.o)
 .text          0x00000000        0x0 c:/program files/microchip/xc32/v1.42/bin/bin/../../lib/gcc/pic32mx/4.8.3/../../../../pic32mx/lib\libpic32.a(vector31.o)
 .data          0x00000000        0x0 c:/program files/microchip/xc32/v1.42/bin/bin/../../lib/gcc/pic32mx/4.8.3/../../../../pic32mx/lib\libpic32.a(vector31.o)
 .bss           0x00000000        0x0 c:/program files/microchip/xc32/v1.42/bin/bin/../../lib/gcc/pic32mx/4.8.3/../../../../pic32mx/lib\libpic32.a(vector31.o)
 .reginfo       0x00000000       0x18 c:/program files/microchip/xc32/v1.42/bin/bin/../../lib/gcc/pic32mx/4.8.3/../../../../pic32mx/lib\libpic32.a(vector31.o)
 .text          0x00000000        0x0 c:/program files/microchip/xc32/v1.42/bin/bin/../../lib/gcc/pic32mx/4.8.3/../../../../pic32mx/lib\libpic32.a(vector32.o)
 .data          0x00000000        0x0 c:/program files/microchip/xc32/v1.42/bin/bin/../../lib/gcc/pic32mx/4.8.3/../../../../pic32mx/lib\libpic32.a(vector32.o)
 .bss           0x00000000        0x0 c:/program files/microchip/xc32/v1.42/bin/bin/../../lib/gcc/pic32mx/4.8.3/../../../../pic32mx/lib\libpic32.a(vector32.o)
 .reginfo       0x00000000       0x18 c:/program files/microchip/xc32/v1.42/bin/bin/../../lib/gcc/pic32mx/4.8.3/../../../../pic32mx/lib\libpic32.a(vector32.o)
 .text          0x00000000        0x0 c:/program files/microchip/xc32/v1.42/bin/bin/../../lib/gcc/pic32mx/4.8.3/../../../../pic32mx/lib\libpic32.a(vector33.o)
 .data          0x00000000        0x0 c:/program files/microchip/xc32/v1.42/bin/bin/../../lib/gcc/pic32mx/4.8.3/../../../../pic32mx/lib\libpic32.a(vector33.o)
 .bss           0x00000000        0x0 c:/program files/microchip/xc32/v1.42/bin/bin/../../lib/gcc/pic32mx/4.8.3/../../../../pic32mx/lib\libpic32.a(vector33.o)
 .reginfo       0x00000000       0x18 c:/program files/microchip/xc32/v1.42/bin/bin/../../lib/gcc/pic32mx/4.8.3/../../../../pic32mx/lib\libpic32.a(vector33.o)
 .text          0x00000000        0x0 c:/program files/microchip/xc32/v1.42/bin/bin/../../lib/gcc/pic32mx/4.8.3/../../../../pic32mx/lib\libpic32.a(vector34.o)
 .data          0x00000000        0x0 c:/program files/microchip/xc32/v1.42/bin/bin/../../lib/gcc/pic32mx/4.8.3/../../../../pic32mx/lib\libpic32.a(vector34.o)
 .bss           0x00000000        0x0 c:/program files/microchip/xc32/v1.42/bin/bin/../../lib/gcc/pic32mx/4.8.3/../../../../pic32mx/lib\libpic32.a(vector34.o)
 .reginfo       0x00000000       0x18 c:/program files/microchip/xc32/v1.42/bin/bin/../../lib/gcc/pic32mx/4.8.3/../../../../pic32mx/lib\libpic32.a(vector34.o)
 .text          0x00000000        0x0 c:/program files/microchip/xc32/v1.42/bin/bin/../../lib/gcc/pic32mx/4.8.3/../../../../pic32mx/lib\libpic32.a(vector35.o)
 .data          0x00000000        0x0 c:/program files/microchip/xc32/v1.42/bin/bin/../../lib/gcc/pic32mx/4.8.3/../../../../pic32mx/lib\libpic32.a(vector35.o)
 .bss           0x00000000        0x0 c:/program files/microchip/xc32/v1.42/bin/bin/../../lib/gcc/pic32mx/4.8.3/../../../../pic32mx/lib\libpic32.a(vector35.o)
 .reginfo       0x00000000       0x18 c:/program files/microchip/xc32/v1.42/bin/bin/../../lib/gcc/pic32mx/4.8.3/../../../../pic32mx/lib\libpic32.a(vector35.o)
 .text          0x00000000        0x0 c:/program files/microchip/xc32/v1.42/bin/bin/../../lib/gcc/pic32mx/4.8.3/../../../../pic32mx/lib\libpic32.a(vector36.o)
 .data          0x00000000        0x0 c:/program files/microchip/xc32/v1.42/bin/bin/../../lib/gcc/pic32mx/4.8.3/../../../../pic32mx/lib\libpic32.a(vector36.o)
 .bss           0x00000000        0x0 c:/program files/microchip/xc32/v1.42/bin/bin/../../lib/gcc/pic32mx/4.8.3/../../../../pic32mx/lib\libpic32.a(vector36.o)
 .reginfo       0x00000000       0x18 c:/program files/microchip/xc32/v1.42/bin/bin/../../lib/gcc/pic32mx/4.8.3/../../../../pic32mx/lib\libpic32.a(vector36.o)
 .text          0x00000000        0x0 c:/program files/microchip/xc32/v1.42/bin/bin/../../lib/gcc/pic32mx/4.8.3/../../../../pic32mx/lib\libpic32.a(vector37.o)
 .data          0x00000000        0x0 c:/program files/microchip/xc32/v1.42/bin/bin/../../lib/gcc/pic32mx/4.8.3/../../../../pic32mx/lib\libpic32.a(vector37.o)
 .bss           0x00000000        0x0 c:/program files/microchip/xc32/v1.42/bin/bin/../../lib/gcc/pic32mx/4.8.3/../../../../pic32mx/lib\libpic32.a(vector37.o)
 .reginfo       0x00000000       0x18 c:/program files/microchip/xc32/v1.42/bin/bin/../../lib/gcc/pic32mx/4.8.3/../../../../pic32mx/lib\libpic32.a(vector37.o)
 .text          0x00000000        0x0 c:/program files/microchip/xc32/v1.42/bin/bin/../../lib/gcc/pic32mx/4.8.3/../../../../pic32mx/lib\libpic32.a(vector38.o)
 .data          0x00000000        0x0 c:/program files/microchip/xc32/v1.42/bin/bin/../../lib/gcc/pic32mx/4.8.3/../../../../pic32mx/lib\libpic32.a(vector38.o)
 .bss           0x00000000        0x0 c:/program files/microchip/xc32/v1.42/bin/bin/../../lib/gcc/pic32mx/4.8.3/../../../../pic32mx/lib\libpic32.a(vector38.o)
 .reginfo       0x00000000       0x18 c:/program files/microchip/xc32/v1.42/bin/bin/../../lib/gcc/pic32mx/4.8.3/../../../../pic32mx/lib\libpic32.a(vector38.o)
 .text          0x00000000        0x0 c:/program files/microchip/xc32/v1.42/bin/bin/../../lib/gcc/pic32mx/4.8.3/../../../../pic32mx/lib\libpic32.a(vector39.o)
 .data          0x00000000        0x0 c:/program files/microchip/xc32/v1.42/bin/bin/../../lib/gcc/pic32mx/4.8.3/../../../../pic32mx/lib\libpic32.a(vector39.o)
 .bss           0x00000000        0x0 c:/program files/microchip/xc32/v1.42/bin/bin/../../lib/gcc/pic32mx/4.8.3/../../../../pic32mx/lib\libpic32.a(vector39.o)
 .reginfo       0x00000000       0x18 c:/program files/microchip/xc32/v1.42/bin/bin/../../lib/gcc/pic32mx/4.8.3/../../../../pic32mx/lib\libpic32.a(vector39.o)
 .text          0x00000000        0x0 c:/program files/microchip/xc32/v1.42/bin/bin/../../lib/gcc/pic32mx/4.8.3/../../../../pic32mx/lib\libpic32.a(vector40.o)
 .data          0x00000000        0x0 c:/program files/microchip/xc32/v1.42/bin/bin/../../lib/gcc/pic32mx/4.8.3/../../../../pic32mx/lib\libpic32.a(vector40.o)
 .bss           0x00000000        0x0 c:/program files/microchip/xc32/v1.42/bin/bin/../../lib/gcc/pic32mx/4.8.3/../../../../pic32mx/lib\libpic32.a(vector40.o)
 .reginfo       0x00000000       0x18 c:/program files/microchip/xc32/v1.42/bin/bin/../../lib/gcc/pic32mx/4.8.3/../../../../pic32mx/lib\libpic32.a(vector40.o)
 .text          0x00000000        0x0 c:/program files/microchip/xc32/v1.42/bin/bin/../../lib/gcc/pic32mx/4.8.3/../../../../pic32mx/lib\libpic32.a(vector41.o)
 .data          0x00000000        0x0 c:/program files/microchip/xc32/v1.42/bin/bin/../../lib/gcc/pic32mx/4.8.3/../../../../pic32mx/lib\libpic32.a(vector41.o)
 .bss           0x00000000        0x0 c:/program files/microchip/xc32/v1.42/bin/bin/../../lib/gcc/pic32mx/4.8.3/../../../../pic32mx/lib\libpic32.a(vector41.o)
 .reginfo       0x00000000       0x18 c:/program files/microchip/xc32/v1.42/bin/bin/../../lib/gcc/pic32mx/4.8.3/../../../../pic32mx/lib\libpic32.a(vector41.o)
 .text          0x00000000        0x0 c:/program files/microchip/xc32/v1.42/bin/bin/../../lib/gcc/pic32mx/4.8.3/../../../../pic32mx/lib\libpic32.a(vector42.o)
 .data          0x00000000        0x0 c:/program files/microchip/xc32/v1.42/bin/bin/../../lib/gcc/pic32mx/4.8.3/../../../../pic32mx/lib\libpic32.a(vector42.o)
 .bss           0x00000000        0x0 c:/program files/microchip/xc32/v1.42/bin/bin/../../lib/gcc/pic32mx/4.8.3/../../../../pic32mx/lib\libpic32.a(vector42.o)
 .reginfo       0x00000000       0x18 c:/program files/microchip/xc32/v1.42/bin/bin/../../lib/gcc/pic32mx/4.8.3/../../../../pic32mx/lib\libpic32.a(vector42.o)
 .text          0x00000000        0x0 c:/program files/microchip/xc32/v1.42/bin/bin/../../lib/gcc/pic32mx/4.8.3/../../../../pic32mx/lib\libpic32.a(vector43.o)
 .data          0x00000000        0x0 c:/program files/microchip/xc32/v1.42/bin/bin/../../lib/gcc/pic32mx/4.8.3/../../../../pic32mx/lib\libpic32.a(vector43.o)
 .bss           0x00000000        0x0 c:/program files/microchip/xc32/v1.42/bin/bin/../../lib/gcc/pic32mx/4.8.3/../../../../pic32mx/lib\libpic32.a(vector43.o)
 .reginfo       0x00000000       0x18 c:/program files/microchip/xc32/v1.42/bin/bin/../../lib/gcc/pic32mx/4.8.3/../../../../pic32mx/lib\libpic32.a(vector43.o)
 .text          0x00000000        0x0 c:/program files/microchip/xc32/v1.42/bin/bin/../../lib/gcc/pic32mx/4.8.3/../../../../pic32mx/lib\libpic32.a(vector44.o)
 .data          0x00000000        0x0 c:/program files/microchip/xc32/v1.42/bin/bin/../../lib/gcc/pic32mx/4.8.3/../../../../pic32mx/lib\libpic32.a(vector44.o)
 .bss           0x00000000        0x0 c:/program files/microchip/xc32/v1.42/bin/bin/../../lib/gcc/pic32mx/4.8.3/../../../../pic32mx/lib\libpic32.a(vector44.o)
 .reginfo       0x00000000       0x18 c:/program files/microchip/xc32/v1.42/bin/bin/../../lib/gcc/pic32mx/4.8.3/../../../../pic32mx/lib\libpic32.a(vector44.o)
 .text          0x00000000        0x0 c:/program files/microchip/xc32/v1.42/bin/bin/../../lib/gcc/pic32mx/4.8.3/../../../../pic32mx/lib\libpic32.a(vector45.o)
 .data          0x00000000        0x0 c:/program files/microchip/xc32/v1.42/bin/bin/../../lib/gcc/pic32mx/4.8.3/../../../../pic32mx/lib\libpic32.a(vector45.o)
 .bss           0x00000000        0x0 c:/program files/microchip/xc32/v1.42/bin/bin/../../lib/gcc/pic32mx/4.8.3/../../../../pic32mx/lib\libpic32.a(vector45.o)
 .reginfo       0x00000000       0x18 c:/program files/microchip/xc32/v1.42/bin/bin/../../lib/gcc/pic32mx/4.8.3/../../../../pic32mx/lib\libpic32.a(vector45.o)
 .text          0x00000000        0x0 c:/program files/microchip/xc32/v1.42/bin/bin/../../lib/gcc/pic32mx/4.8.3/../../../../pic32mx/lib\libpic32.a(vector46.o)
 .data          0x00000000        0x0 c:/program files/microchip/xc32/v1.42/bin/bin/../../lib/gcc/pic32mx/4.8.3/../../../../pic32mx/lib\libpic32.a(vector46.o)
 .bss           0x00000000        0x0 c:/program files/microchip/xc32/v1.42/bin/bin/../../lib/gcc/pic32mx/4.8.3/../../../../pic32mx/lib\libpic32.a(vector46.o)
 .reginfo       0x00000000       0x18 c:/program files/microchip/xc32/v1.42/bin/bin/../../lib/gcc/pic32mx/4.8.3/../../../../pic32mx/lib\libpic32.a(vector46.o)
 .text          0x00000000        0x0 c:/program files/microchip/xc32/v1.42/bin/bin/../../lib/gcc/pic32mx/4.8.3/../../../../pic32mx/lib\libpic32.a(vector47.o)
 .data          0x00000000        0x0 c:/program files/microchip/xc32/v1.42/bin/bin/../../lib/gcc/pic32mx/4.8.3/../../../../pic32mx/lib\libpic32.a(vector47.o)
 .bss           0x00000000        0x0 c:/program files/microchip/xc32/v1.42/bin/bin/../../lib/gcc/pic32mx/4.8.3/../../../../pic32mx/lib\libpic32.a(vector47.o)
 .reginfo       0x00000000       0x18 c:/program files/microchip/xc32/v1.42/bin/bin/../../lib/gcc/pic32mx/4.8.3/../../../../pic32mx/lib\libpic32.a(vector47.o)
 .text          0x00000000        0x0 c:/program files/microchip/xc32/v1.42/bin/bin/../../lib/gcc/pic32mx/4.8.3/../../../../pic32mx/lib\libpic32.a(vector48.o)
 .data          0x00000000        0x0 c:/program files/microchip/xc32/v1.42/bin/bin/../../lib/gcc/pic32mx/4.8.3/../../../../pic32mx/lib\libpic32.a(vector48.o)
 .bss           0x00000000        0x0 c:/program files/microchip/xc32/v1.42/bin/bin/../../lib/gcc/pic32mx/4.8.3/../../../../pic32mx/lib\libpic32.a(vector48.o)
 .reginfo       0x00000000       0x18 c:/program files/microchip/xc32/v1.42/bin/bin/../../lib/gcc/pic32mx/4.8.3/../../../../pic32mx/lib\libpic32.a(vector48.o)
 .text          0x00000000        0x0 c:/program files/microchip/xc32/v1.42/bin/bin/../../lib/gcc/pic32mx/4.8.3/../../../../pic32mx/lib\libpic32.a(vector49.o)
 .data          0x00000000        0x0 c:/program files/microchip/xc32/v1.42/bin/bin/../../lib/gcc/pic32mx/4.8.3/../../../../pic32mx/lib\libpic32.a(vector49.o)
 .bss           0x00000000        0x0 c:/program files/microchip/xc32/v1.42/bin/bin/../../lib/gcc/pic32mx/4.8.3/../../../../pic32mx/lib\libpic32.a(vector49.o)
 .reginfo       0x00000000       0x18 c:/program files/microchip/xc32/v1.42/bin/bin/../../lib/gcc/pic32mx/4.8.3/../../../../pic32mx/lib\libpic32.a(vector49.o)
 .text          0x00000000        0x0 c:/program files/microchip/xc32/v1.42/bin/bin/../../lib/gcc/pic32mx/4.8.3/../../../../pic32mx/lib\libpic32.a(vector50.o)
 .data          0x00000000        0x0 c:/program files/microchip/xc32/v1.42/bin/bin/../../lib/gcc/pic32mx/4.8.3/../../../../pic32mx/lib\libpic32.a(vector50.o)
 .bss           0x00000000        0x0 c:/program files/microchip/xc32/v1.42/bin/bin/../../lib/gcc/pic32mx/4.8.3/../../../../pic32mx/lib\libpic32.a(vector50.o)
 .reginfo       0x00000000       0x18 c:/program files/microchip/xc32/v1.42/bin/bin/../../lib/gcc/pic32mx/4.8.3/../../../../pic32mx/lib\libpic32.a(vector50.o)
 .text          0x00000000        0x0 c:/program files/microchip/xc32/v1.42/bin/bin/../../lib/gcc/pic32mx/4.8.3/../../../../pic32mx/lib\libpic32.a(vector51.o)
 .data          0x00000000        0x0 c:/program files/microchip/xc32/v1.42/bin/bin/../../lib/gcc/pic32mx/4.8.3/../../../../pic32mx/lib\libpic32.a(vector51.o)
 .bss           0x00000000        0x0 c:/program files/microchip/xc32/v1.42/bin/bin/../../lib/gcc/pic32mx/4.8.3/../../../../pic32mx/lib\libpic32.a(vector51.o)
 .reginfo       0x00000000       0x18 c:/program files/microchip/xc32/v1.42/bin/bin/../../lib/gcc/pic32mx/4.8.3/../../../../pic32mx/lib\libpic32.a(vector51.o)
 .text          0x00000000        0x0 c:/program files/microchip/xc32/v1.42/bin/bin/../../lib/gcc/pic32mx/4.8.3/../../../../pic32mx/lib\libpic32.a(defaultinterrupt.o)
 .data          0x00000000        0x0 c:/program files/microchip/xc32/v1.42/bin/bin/../../lib/gcc/pic32mx/4.8.3/../../../../pic32mx/lib\libpic32.a(defaultinterrupt.o)
 .bss           0x00000000        0x0 c:/program files/microchip/xc32/v1.42/bin/bin/../../lib/gcc/pic32mx/4.8.3/../../../../pic32mx/lib\libpic32.a(defaultinterrupt.o)
 .reginfo       0x00000000       0x18 c:/program files/microchip/xc32/v1.42/bin/bin/../../lib/gcc/pic32mx/4.8.3/../../../../pic32mx/lib\libpic32.a(defaultinterrupt.o)
 .text          0x00000000        0x0 c:/program files/microchip/xc32/v1.42/bin/bin/../../lib/gcc/pic32mx/4.8.3/../../../../pic32mx/lib\libm.a(fp32div.o)
 .data          0x00000000        0x0 c:/program files/microchip/xc32/v1.42/bin/bin/../../lib/gcc/pic32mx/4.8.3/../../../../pic32mx/lib\libm.a(fp32div.o)
 .bss           0x00000000        0x0 c:/program files/microchip/xc32/v1.42/bin/bin/../../lib/gcc/pic32mx/4.8.3/../../../../pic32mx/lib\libm.a(fp32div.o)
 .reginfo       0x00000000       0x18 c:/program files/microchip/xc32/v1.42/bin/bin/../../lib/gcc/pic32mx/4.8.3/../../../../pic32mx/lib\libm.a(fp32div.o)
 .text          0x00000000        0x0 c:/program files/microchip/xc32/v1.42/bin/bin/../../lib/gcc/pic32mx/4.8.3/../../../../pic32mx/lib\libm.a(fp32mul.o)
 .data          0x00000000        0x0 c:/program files/microchip/xc32/v1.42/bin/bin/../../lib/gcc/pic32mx/4.8.3/../../../../pic32mx/lib\libm.a(fp32mul.o)
 .bss           0x00000000        0x0 c:/program files/microchip/xc32/v1.42/bin/bin/../../lib/gcc/pic32mx/4.8.3/../../../../pic32mx/lib\libm.a(fp32mul.o)
 .reginfo       0x00000000       0x18 c:/program files/microchip/xc32/v1.42/bin/bin/../../lib/gcc/pic32mx/4.8.3/../../../../pic32mx/lib\libm.a(fp32mul.o)
 .text          0x00000000        0x0 c:/program files/microchip/xc32/v1.42/bin/bin/../../lib/gcc/pic32mx/4.8.3/../../../../pic32mx/lib\libm.a(fp32subadd.o)
 .data          0x00000000        0x0 c:/program files/microchip/xc32/v1.42/bin/bin/../../lib/gcc/pic32mx/4.8.3/../../../../pic32mx/lib\libm.a(fp32subadd.o)
 .bss           0x00000000        0x0 c:/program files/microchip/xc32/v1.42/bin/bin/../../lib/gcc/pic32mx/4.8.3/../../../../pic32mx/lib\libm.a(fp32subadd.o)
 .reginfo       0x00000000       0x18 c:/program files/microchip/xc32/v1.42/bin/bin/../../lib/gcc/pic32mx/4.8.3/../../../../pic32mx/lib\libm.a(fp32subadd.o)
 .text          0x00000000        0x0 c:/program files/microchip/xc32/v1.42/bin/bin/../../lib/gcc/pic32mx/4.8.3/../../../../pic32mx/lib\libm.a(w_sqrtf.o)
 .data          0x00000000        0x0 c:/program files/microchip/xc32/v1.42/bin/bin/../../lib/gcc/pic32mx/4.8.3/../../../../pic32mx/lib\libm.a(w_sqrtf.o)
 .bss           0x00000000        0x0 c:/program files/microchip/xc32/v1.42/bin/bin/../../lib/gcc/pic32mx/4.8.3/../../../../pic32mx/lib\libm.a(w_sqrtf.o)
 .reginfo       0x00000000       0x18 c:/program files/microchip/xc32/v1.42/bin/bin/../../lib/gcc/pic32mx/4.8.3/../../../../pic32mx/lib\libm.a(w_sqrtf.o)
 .text          0x00000000        0x0 c:/program files/microchip/xc32/v1.42/bin/bin/../../lib/gcc/pic32mx/4.8.3/../../../../pic32mx/lib\libm.a(fpcmp.o)
 .data          0x00000000        0x0 c:/program files/microchip/xc32/v1.42/bin/bin/../../lib/gcc/pic32mx/4.8.3/../../../../pic32mx/lib\libm.a(fpcmp.o)
 .bss           0x00000000        0x0 c:/program files/microchip/xc32/v1.42/bin/bin/../../lib/gcc/pic32mx/4.8.3/../../../../pic32mx/lib\libm.a(fpcmp.o)
 .reginfo       0x00000000       0x18 c:/program files/microchip/xc32/v1.42/bin/bin/../../lib/gcc/pic32mx/4.8.3/../../../../pic32mx/lib\libm.a(fpcmp.o)
 .text          0x00000000        0x0 c:/program files/microchip/xc32/v1.42/bin/bin/../../lib/gcc/pic32mx/4.8.3/../../../../pic32mx/lib\libm.a(fpsqrt32.o)
 .data          0x00000000        0x0 c:/program files/microchip/xc32/v1.42/bin/bin/../../lib/gcc/pic32mx/4.8.3/../../../../pic32mx/lib\libm.a(fpsqrt32.o)
 .bss           0x00000000        0x0 c:/program files/microchip/xc32/v1.42/bin/bin/../../lib/gcc/pic32mx/4.8.3/../../../../pic32mx/lib\libm.a(fpsqrt32.o)
 .reginfo       0x00000000       0x18 c:/program files/microchip/xc32/v1.42/bin/bin/../../lib/gcc/pic32mx/4.8.3/../../../../pic32mx/lib\libm.a(fpsqrt32.o)
 .text          0x00000000        0x0 c:/program files/microchip/xc32/v1.42/bin/bin/../../lib/gcc/pic32mx/4.8.3/../../../../pic32mx/lib\libm.a(s_lib_ver.o)
 .data          0x00000000        0x0 c:/program files/microchip/xc32/v1.42/bin/bin/../../lib/gcc/pic32mx/4.8.3/../../../../pic32mx/lib\libm.a(s_lib_ver.o)
 .bss           0x00000000        0x0 c:/program files/microchip/xc32/v1.42/bin/bin/../../lib/gcc/pic32mx/4.8.3/../../../../pic32mx/lib\libm.a(s_lib_ver.o)
 .reginfo       0x00000000       0x18 c:/program files/microchip/xc32/v1.42/bin/bin/../../lib/gcc/pic32mx/4.8.3/../../../../pic32mx/lib\libm.a(s_lib_ver.o)
 .text          0x00000000        0x0 c:/program files/microchip/xc32/v1.42/bin/bin/../../lib/gcc/pic32mx/4.8.3/../../../../pic32mx/lib\libm.a(fpexsqrt32.o)
 .data          0x00000000        0x0 c:/program files/microchip/xc32/v1.42/bin/bin/../../lib/gcc/pic32mx/4.8.3/../../../../pic32mx/lib\libm.a(fpexsqrt32.o)
 .bss           0x00000000        0x0 c:/program files/microchip/xc32/v1.42/bin/bin/../../lib/gcc/pic32mx/4.8.3/../../../../pic32mx/lib\libm.a(fpexsqrt32.o)
 .reginfo       0x00000000       0x18 c:/program files/microchip/xc32/v1.42/bin/bin/../../lib/gcc/pic32mx/4.8.3/../../../../pic32mx/lib\libm.a(fpexsqrt32.o)
 .text          0x00000000        0x0 c:/program files/microchip/xc32/v1.42/bin/bin/../../lib/gcc/pic32mx/4.8.3/../../../../pic32mx/lib\libc.a(errno.o)
 .data          0x00000000        0x0 c:/program files/microchip/xc32/v1.42/bin/bin/../../lib/gcc/pic32mx/4.8.3/../../../../pic32mx/lib\libc.a(errno.o)
 .bss           0x00000000        0x0 c:/program files/microchip/xc32/v1.42/bin/bin/../../lib/gcc/pic32mx/4.8.3/../../../../pic32mx/lib\libc.a(errno.o)
 .reginfo       0x00000000       0x18 c:/program files/microchip/xc32/v1.42/bin/bin/../../lib/gcc/pic32mx/4.8.3/../../../../pic32mx/lib\libc.a(errno.o)
 .text          0x00000000        0x0 c:/program files/microchip/xc32/v1.42/bin/bin/../../lib/gcc/pic32mx/4.8.3/../../../../pic32mx/lib\libc.a(strchr.o)
 .data          0x00000000        0x0 c:/program files/microchip/xc32/v1.42/bin/bin/../../lib/gcc/pic32mx/4.8.3/../../../../pic32mx/lib\libc.a(strchr.o)
 .bss           0x00000000        0x0 c:/program files/microchip/xc32/v1.42/bin/bin/../../lib/gcc/pic32mx/4.8.3/../../../../pic32mx/lib\libc.a(strchr.o)
 .reginfo       0x00000000       0x18 c:/program files/microchip/xc32/v1.42/bin/bin/../../lib/gcc/pic32mx/4.8.3/../../../../pic32mx/lib\libc.a(strchr.o)
 .text          0x00000000        0x0 c:/program files/microchip/xc32/v1.42/bin/bin/../../lib/gcc/pic32mx/4.8.3/../../../../pic32mx/lib\libc.a(strncpy.o)
 .data          0x00000000        0x0 c:/program files/microchip/xc32/v1.42/bin/bin/../../lib/gcc/pic32mx/4.8.3/../../../../pic32mx/lib\libc.a(strncpy.o)
 .bss           0x00000000        0x0 c:/program files/microchip/xc32/v1.42/bin/bin/../../lib/gcc/pic32mx/4.8.3/../../../../pic32mx/lib\libc.a(strncpy.o)
 .reginfo       0x00000000       0x18 c:/program files/microchip/xc32/v1.42/bin/bin/../../lib/gcc/pic32mx/4.8.3/../../../../pic32mx/lib\libc.a(strncpy.o)
 .text          0x00000000        0x0 c:/program files/microchip/xc32/v1.42/bin/bin/../../lib/gcc/pic32mx/4.8.3/../../../../pic32mx/lib\libc.a(strtof.o)
 .data          0x00000000        0x0 c:/program files/microchip/xc32/v1.42/bin/bin/../../lib/gcc/pic32mx/4.8.3/../../../../pic32mx/lib\libc.a(strtof.o)
 .bss           0x00000000        0x0 c:/program files/microchip/xc32/v1.42/bin/bin/../../lib/gcc/pic32mx/4.8.3/../../../../pic32mx/lib\libc.a(strtof.o)
 .reginfo       0x00000000       0x18 c:/program files/microchip/xc32/v1.42/bin/bin/../../lib/gcc/pic32mx/4.8.3/../../../../pic32mx/lib\libc.a(strtof.o)
 .text.strtodf  0x00000000       0x1c c:/program files/microchip/xc32/v1.42/bin/bin/../../lib/gcc/pic32mx/4.8.3/../../../../pic32mx/lib\libc.a(strtof.o)
 .text          0x00000000        0x0 c:/program files/microchip/xc32/v1.42/bin/bin/../../lib/gcc/pic32mx/4.8.3/../../../../pic32mx/lib\libc.a(strtok.o)
 .data          0x00000000        0x0 c:/program files/microchip/xc32/v1.42/bin/bin/../../lib/gcc/pic32mx/4.8.3/../../../../pic32mx/lib\libc.a(strtok.o)
 .reginfo       0x00000000       0x18 c:/program files/microchip/xc32/v1.42/bin/bin/../../lib/gcc/pic32mx/4.8.3/../../../../pic32mx/lib\libc.a(strtok.o)
 .text          0x00000000        0x0 c:/program files/microchip/xc32/v1.42/bin/bin/../../lib/gcc/pic32mx/4.8.3/../../../../pic32mx/lib\libc.a(strcspn.o)
 .data          0x00000000        0x0 c:/program files/microchip/xc32/v1.42/bin/bin/../../lib/gcc/pic32mx/4.8.3/../../../../pic32mx/lib\libc.a(strcspn.o)
 .bss           0x00000000        0x0 c:/program files/microchip/xc32/v1.42/bin/bin/../../lib/gcc/pic32mx/4.8.3/../../../../pic32mx/lib\libc.a(strcspn.o)
 .reginfo       0x00000000       0x18 c:/program files/microchip/xc32/v1.42/bin/bin/../../lib/gcc/pic32mx/4.8.3/../../../../pic32mx/lib\libc.a(strcspn.o)
 .text          0x00000000        0x0 c:/program files/microchip/xc32/v1.42/bin/bin/../../lib/gcc/pic32mx/4.8.3/../../../../pic32mx/lib\libc.a(strspn.o)
 .data          0x00000000        0x0 c:/program files/microchip/xc32/v1.42/bin/bin/../../lib/gcc/pic32mx/4.8.3/../../../../pic32mx/lib\libc.a(strspn.o)
 .bss           0x00000000        0x0 c:/program files/microchip/xc32/v1.42/bin/bin/../../lib/gcc/pic32mx/4.8.3/../../../../pic32mx/lib\libc.a(strspn.o)
 .reginfo       0x00000000       0x18 c:/program files/microchip/xc32/v1.42/bin/bin/../../lib/gcc/pic32mx/4.8.3/../../../../pic32mx/lib\libc.a(strspn.o)
 .text          0x00000000        0x0 c:/program files/microchip/xc32/v1.42/bin/bin/../../lib/gcc/pic32mx/4.8.3/../../../../pic32mx/lib\libm.a(__strtof.o)
 .data          0x00000000        0x0 c:/program files/microchip/xc32/v1.42/bin/bin/../../lib/gcc/pic32mx/4.8.3/../../../../pic32mx/lib\libm.a(__strtof.o)
 .bss           0x00000000        0x0 c:/program files/microchip/xc32/v1.42/bin/bin/../../lib/gcc/pic32mx/4.8.3/../../../../pic32mx/lib\libm.a(__strtof.o)
 .reginfo       0x00000000       0x18 c:/program files/microchip/xc32/v1.42/bin/bin/../../lib/gcc/pic32mx/4.8.3/../../../../pic32mx/lib\libm.a(__strtof.o)
 .text          0x00000000        0x0 c:/program files/microchip/xc32/v1.42/bin/bin/../../lib/gcc/pic32mx/4.8.3/../../../../pic32mx/lib\libm.a(negsf2.o)
 .data          0x00000000        0x0 c:/program files/microchip/xc32/v1.42/bin/bin/../../lib/gcc/pic32mx/4.8.3/../../../../pic32mx/lib\libm.a(negsf2.o)
 .bss           0x00000000        0x0 c:/program files/microchip/xc32/v1.42/bin/bin/../../lib/gcc/pic32mx/4.8.3/../../../../pic32mx/lib\libm.a(negsf2.o)
 .reginfo       0x00000000       0x18 c:/program files/microchip/xc32/v1.42/bin/bin/../../lib/gcc/pic32mx/4.8.3/../../../../pic32mx/lib\libm.a(negsf2.o)
 .text          0x00000000        0x0 c:/program files/microchip/xc32/v1.42/bin/bin/../../lib/gcc/pic32mx/4.8.3/../../../../pic32mx/lib\libm.a(sitofp.o)
 .data          0x00000000        0x0 c:/program files/microchip/xc32/v1.42/bin/bin/../../lib/gcc/pic32mx/4.8.3/../../../../pic32mx/lib\libm.a(sitofp.o)
 .bss           0x00000000        0x0 c:/program files/microchip/xc32/v1.42/bin/bin/../../lib/gcc/pic32mx/4.8.3/../../../../pic32mx/lib\libm.a(sitofp.o)
 .reginfo       0x00000000       0x18 c:/program files/microchip/xc32/v1.42/bin/bin/../../lib/gcc/pic32mx/4.8.3/../../../../pic32mx/lib\libm.a(sitofp.o)
 .text          0x00000000        0x0 c:/program files/microchip/xc32/v1.42/bin/bin/../../lib/gcc/pic32mx/4.8.3/../../../../pic32mx/lib\libe.a(_ldexpf.o)
 .data          0x00000000        0x0 c:/program files/microchip/xc32/v1.42/bin/bin/../../lib/gcc/pic32mx/4.8.3/../../../../pic32mx/lib\libe.a(_ldexpf.o)
 .bss           0x00000000        0x0 c:/program files/microchip/xc32/v1.42/bin/bin/../../lib/gcc/pic32mx/4.8.3/../../../../pic32mx/lib\libe.a(_ldexpf.o)
 .reginfo       0x00000000       0x18 c:/program files/microchip/xc32/v1.42/bin/bin/../../lib/gcc/pic32mx/4.8.3/../../../../pic32mx/lib\libe.a(_ldexpf.o)
 .text          0x00000000        0x0 c:/program files/microchip/xc32/v1.42/bin/bin/../../lib/gcc/pic32mx/4.8.3/../../../../pic32mx/lib\libc.a(ctype.o)
 .data          0x00000000        0x0 c:/program files/microchip/xc32/v1.42/bin/bin/../../lib/gcc/pic32mx/4.8.3/../../../../pic32mx/lib\libc.a(ctype.o)
 .bss           0x00000000        0x0 c:/program files/microchip/xc32/v1.42/bin/bin/../../lib/gcc/pic32mx/4.8.3/../../../../pic32mx/lib\libc.a(ctype.o)
 .reginfo       0x00000000       0x18 c:/program files/microchip/xc32/v1.42/bin/bin/../../lib/gcc/pic32mx/4.8.3/../../../../pic32mx/lib\libc.a(ctype.o)

Memory Configuration

Name             Origin             Length             Attributes
kseg0_program_mem 0x9d000000         0x00080000         xr
kseg0_boot_mem   0x9fc00490         0x00000970
exception_mem    0x9fc01000         0x00001000
kseg1_boot_mem   0xbfc00000         0x00000490
debug_exec_mem   0xbfc02000         0x00000ff0
config3          0xbfc02ff0         0x00000004
config2          0xbfc02ff4         0x00000004
config1          0xbfc02ff8         0x00000004
config0          0xbfc02ffc         0x00000004
kseg1_data_mem   0xa0000000         0x00020000         w !x
sfrs             0xbf800000         0x00100000
configsfrs       0xbfc02ff0         0x00000010
*default*        0x00000000         0xffffffff

Linker script and memory map

LOAD c:/program files/microchip/xc32/v1.42/bin/bin/../../lib/gcc/pic32mx/4.8.3/../../../../pic32mx/lib/./proc/32MX795F512L/crt0_mips32r2.o
LOAD c:/program files/microchip/xc32/v1.42/bin/bin/../../lib/gcc/pic32mx/4.8.3/../../../../pic32mx/lib\software-debug-break.o
                0x00000001                _DEBUGGER = 0x1
LOAD build/default/debug/_ext/977502197/drv_spi_tasks.o
LOAD build/default/debug/_ext/977502197/drv_spi_api.o
LOAD build/default/debug/_ext/977502197/drv_spi_master_rm_tasks.o
LOAD build/default/debug/_ext/639803181/sys_clk_static.o
LOAD build/default/debug/_ext/822048611/sys_ports_static.o
LOAD build/default/debug/_ext/1688732426/insgps16state_v1.o
LOAD build/default/debug/_ext/1688732426/system_init.o
LOAD build/default/debug/_ext/1688732426/system_interrupt.o
LOAD build/default/debug/_ext/1688732426/system_exceptions.o
LOAD build/default/debug/_ext/1688732426/system_tasks.o
LOAD build/default/debug/_ext/1688732426/system_interrupt_a.o
LOAD build/default/debug/_ext/1688732426/rtos_hooks.o
LOAD build/default/debug/_ext/1360937237/app.o
LOAD build/default/debug/_ext/1360937237/main.o
LOAD build/default/debug/_ext/1890346972/bsp_sys_init.o
LOAD build/default/debug/_ext/568870469/drv_spi.o
LOAD build/default/debug/_ext/465164171/drv_spi_sys_queue_fifo.o
LOAD build/default/debug/_ext/260586732/drv_usart.o
LOAD build/default/debug/_ext/260586732/drv_usart_read_write.o
LOAD build/default/debug/_ext/24337685/osal_freertos.o
LOAD build/default/debug/_ext/1271179505/sys_devcon.o
LOAD build/default/debug/_ext/1271179505/sys_devcon_pic32mx.o
LOAD build/default/debug/_ext/122796885/sys_int_pic32.o
LOAD build/default/debug/_ext/1856876499/heap_1.o
LOAD build/default/debug/_ext/12131622/port.o
LOAD build/default/debug/_ext/12131622/port_asm.o
LOAD build/default/debug/_ext/1128951024/croutine.o
LOAD build/default/debug/_ext/1128951024/list.o
LOAD build/default/debug/_ext/1128951024/queue.o
LOAD build/default/debug/_ext/1128951024/tasks.o
LOAD build/default/debug/_ext/1128951024/timers.o
LOAD build/default/debug/_ext/1128951024/event_groups.o
LOAD ..\..\..\..\bin\framework\peripheral\PIC32MX795F512L_peripherals.a
LOAD ..\..\..\..\framework\tcpip\src\crypto\aes_pic32mx.a
                0x00000001                __MPLAB_BUILD = 0x1
                0x00000001                __MPLAB_DEBUG = 0x1
                0x00000001                __DEBUG = 0x1
                0x00000001                __MPLAB_DEBUGGER_PIC32MXSK = 0x1
                0x00000000                _min_heap_size = 0x0
LOAD c:/program files/microchip/xc32/v1.42/bin/bin/../../lib/gcc/pic32mx/4.8.3/../../../../pic32mx/lib/./proc/32MX795F512L\default_isr_vectors.o
LOAD c:/program files/microchip/xc32/v1.42/bin/bin/../../lib/gcc/pic32mx/4.8.3/../../../../pic32mx/lib\pic32_software_reset.o
                0x00000400                PROVIDE (_min_stack_size, 0x400)
LOAD c:/program files/microchip/xc32/v1.42/bin/bin/../../lib/gcc/pic32mx/4.8.3/../../../../pic32mx/lib/./proc/32MX795F512L\processor.o
START GROUP
LOAD libmchp_peripheral.a
END GROUP
START GROUP
LOAD libmchp_peripheral_32MX795F512L.a
END GROUP
                0x00000001                PROVIDE (_vector_spacing, 0x1)
                0x9fc01000                PROVIDE (_ebase_address, 0x9fc01000)
                0xbfc00000                _RESET_ADDR = 0xbfc00000
                0xbfc00380                _BEV_EXCPT_ADDR = 0xbfc00380
                0xbfc00480                _DBG_EXCPT_ADDR = 0xbfc00480
                0xbfc02000                _DBG_CODE_ADDR = 0xbfc02000
                0x00000ff0                _DBG_CODE_SIZE = 0xff0
                0x9fc01180                _GEN_EXCPT_ADDR = (_ebase_address + 0x180)

.config_BFC02FF0
                0xbfc02ff0        0x4
 *(.config_BFC02FF0)
 .config_BFC02FF0
                0xbfc02ff0        0x4 build/default/debug/_ext/1688732426/system_init.o

.config_BFC02FF4
                0xbfc02ff4        0x4
 *(.config_BFC02FF4)
 .config_BFC02FF4
                0xbfc02ff4        0x4 build/default/debug/_ext/1688732426/system_init.o

.config_BFC02FF8
                0xbfc02ff8        0x4
 *(.config_BFC02FF8)
 .config_BFC02FF8
                0xbfc02ff8        0x4 build/default/debug/_ext/1688732426/system_init.o

.config_BFC02FFC
                0xbfc02ffc        0x4
 *(.config_BFC02FFC)
 .config_BFC02FFC
                0xbfc02ffc        0x4 build/default/debug/_ext/1688732426/system_init.o
                0xbfc02000                PROVIDE (_DBG_CODE_ADDR, 0xbfc02000)
                0x00000ff0                PROVIDE (_DBG_CODE_SIZE, 0xff0)

.reset          0xbfc00000      0x208
 *(.reset)
 .reset         0xbfc00000        0x8 c:/program files/microchip/xc32/v1.42/bin/bin/../../lib/gcc/pic32mx/4.8.3/../../../../pic32mx/lib/./proc/32MX795F512L/crt0_mips32r2.o
                0xbfc00000                _reset
 *(.reset.startup)
 .reset.startup
                0xbfc00008      0x200 c:/program files/microchip/xc32/v1.42/bin/bin/../../lib/gcc/pic32mx/4.8.3/../../../../pic32mx/lib/./proc/32MX795F512L/crt0_mips32r2.o

.bev_excpt      0xbfc00380       0x10
 *(.bev_handler)
 .bev_handler   0xbfc00380       0x10 c:/program files/microchip/xc32/v1.42/bin/bin/../../lib/gcc/pic32mx/4.8.3/../../../../pic32mx/lib/./proc/32MX795F512L/crt0_mips32r2.o

.dbg_excpt      0xbfc00480        0x8
                0xbfc00480                . = (. + DEFINED (_DEBUGGER)?0x8:0x0)
 *fill*         0xbfc00480        0x8 

.dbg_code       0xbfc02000      0xff0
                0xbfc02000                . = (. + DEFINED (_DEBUGGER)?_DBG_CODE_SIZE:0x0)
 *fill*         0xbfc02000      0xff0 

.app_excpt      0x9fc01180       0x10
 *(.gen_handler)
 .gen_handler   0x9fc01180       0x10 c:/program files/microchip/xc32/v1.42/bin/bin/../../lib/gcc/pic32mx/4.8.3/../../../../pic32mx/lib/./proc/32MX795F512L/crt0_mips32r2.o

.vector_0       0x9fc01200        0x8
 *(.vector_0)
 .vector_0      0x9fc01200        0x8 c:/program files/microchip/xc32/v1.42/bin/bin/../../lib/gcc/pic32mx/4.8.3/../../../../pic32mx/lib\libpic32.a(vector0.o)
                0x9fc01200                __vector_dispatch_0
                0x00000001                ASSERT (((_vector_spacing == 0x0) || (SIZEOF (.vector_0) <= (_vector_spacing << 0x5))), function at exception vector 0 too large)

.vector_1       0x9fc01220        0x8
 *(.vector_1)
 .vector_1      0x9fc01220        0x8 build/default/debug/_ext/12131622/port.o
                0x9fc01220                __vector_dispatch_1
                0x00000001                ASSERT (((_vector_spacing == 0x0) || (SIZEOF (.vector_1) <= (_vector_spacing << 0x5))), function at exception vector 1 too large)

.vector_2       0x9fc01240        0x8
 *(.vector_2)
 .vector_2      0x9fc01240        0x8 c:/program files/microchip/xc32/v1.42/bin/bin/../../lib/gcc/pic32mx/4.8.3/../../../../pic32mx/lib\libpic32.a(vector2.o)
                0x9fc01240                __vector_dispatch_2
                0x00000001                ASSERT (((_vector_spacing == 0x0) || (SIZEOF (.vector_2) <= (_vector_spacing << 0x5))), function at exception vector 2 too large)

.vector_3       0x9fc01260        0x8
 *(.vector_3)
 .vector_3      0x9fc01260        0x8 c:/program files/microchip/xc32/v1.42/bin/bin/../../lib/gcc/pic32mx/4.8.3/../../../../pic32mx/lib\libpic32.a(vector3.o)
                0x9fc01260                __vector_dispatch_3
                0x00000001                ASSERT (((_vector_spacing == 0x0) || (SIZEOF (.vector_3) <= (_vector_spacing << 0x5))), function at exception vector 3 too large)

.vector_4       0x9fc01280        0x8
 *(.vector_4)
 .vector_4      0x9fc01280        0x8 build/default/debug/_ext/12131622/port.o
                0x9fc01280                __vector_dispatch_4
                0x00000001                ASSERT (((_vector_spacing == 0x0) || (SIZEOF (.vector_4) <= (_vector_spacing << 0x5))), function at exception vector 4 too large)

.vector_5       0x9fc012a0        0x8
 *(.vector_5)
 .vector_5      0x9fc012a0        0x8 c:/program files/microchip/xc32/v1.42/bin/bin/../../lib/gcc/pic32mx/4.8.3/../../../../pic32mx/lib\libpic32.a(vector5.o)
                0x9fc012a0                __vector_dispatch_5
                0x00000001                ASSERT (((_vector_spacing == 0x0) || (SIZEOF (.vector_5) <= (_vector_spacing << 0x5))), function at exception vector 5 too large)

.vector_6       0x9fc012c0        0x8
 *(.vector_6)
 .vector_6      0x9fc012c0        0x8 c:/program files/microchip/xc32/v1.42/bin/bin/../../lib/gcc/pic32mx/4.8.3/../../../../pic32mx/lib\libpic32.a(vector6.o)
                0x9fc012c0                __vector_dispatch_6
                0x00000001                ASSERT (((_vector_spacing == 0x0) || (SIZEOF (.vector_6) <= (_vector_spacing << 0x5))), function at exception vector 6 too large)

.vector_7       0x9fc012e0       0x10
 *(.vector_7)
 .vector_7      0x9fc012e0       0x10 build/default/debug/_ext/1688732426/system_interrupt_a.o
                0x9fc012e0                __vector_dispatch_7
                0x00000001                ASSERT (((_vector_spacing == 0x0) || (SIZEOF (.vector_7) <= (_vector_spacing << 0x5))), function at exception vector 7 too large)

.vector_8       0x9fc01300        0x8
 *(.vector_8)
 .vector_8      0x9fc01300        0x8 c:/program files/microchip/xc32/v1.42/bin/bin/../../lib/gcc/pic32mx/4.8.3/../../../../pic32mx/lib\libpic32.a(vector8.o)
                0x9fc01300                __vector_dispatch_8
                0x00000001                ASSERT (((_vector_spacing == 0x0) || (SIZEOF (.vector_8) <= (_vector_spacing << 0x5))), function at exception vector 8 too large)

.vector_9       0x9fc01320        0x8
 *(.vector_9)
 .vector_9      0x9fc01320        0x8 c:/program files/microchip/xc32/v1.42/bin/bin/../../lib/gcc/pic32mx/4.8.3/../../../../pic32mx/lib\libpic32.a(vector9.o)
                0x9fc01320                __vector_dispatch_9
                0x00000001                ASSERT (((_vector_spacing == 0x0) || (SIZEOF (.vector_9) <= (_vector_spacing << 0x5))), function at exception vector 9 too large)

.vector_10      0x9fc01340        0x8
 *(.vector_10)
 .vector_10     0x9fc01340        0x8 c:/program files/microchip/xc32/v1.42/bin/bin/../../lib/gcc/pic32mx/4.8.3/../../../../pic32mx/lib\libpic32.a(vector10.o)
                0x9fc01340                __vector_dispatch_10
                0x00000001                ASSERT (((_vector_spacing == 0x0) || (SIZEOF (.vector_10) <= (_vector_spacing << 0x5))), function at exception vector 10 too large)

.vector_11      0x9fc01360       0x10
 *(.vector_11)
 .vector_11     0x9fc01360       0x10 build/default/debug/_ext/1688732426/system_interrupt_a.o
                0x9fc01360                __vector_dispatch_11
                0x00000001                ASSERT (((_vector_spacing == 0x0) || (SIZEOF (.vector_11) <= (_vector_spacing << 0x5))), function at exception vector 11 too large)

.vector_12      0x9fc01380        0x8
 *(.vector_12)
 .vector_12     0x9fc01380        0x8 c:/program files/microchip/xc32/v1.42/bin/bin/../../lib/gcc/pic32mx/4.8.3/../../../../pic32mx/lib\libpic32.a(vector12.o)
                0x9fc01380                __vector_dispatch_12
                0x00000001                ASSERT (((_vector_spacing == 0x0) || (SIZEOF (.vector_12) <= (_vector_spacing << 0x5))), function at exception vector 12 too large)

.vector_13      0x9fc013a0        0x8
 *(.vector_13)
 .vector_13     0x9fc013a0        0x8 c:/program files/microchip/xc32/v1.42/bin/bin/../../lib/gcc/pic32mx/4.8.3/../../../../pic32mx/lib\libpic32.a(vector13.o)
                0x9fc013a0                __vector_dispatch_13
                0x00000001                ASSERT (((_vector_spacing == 0x0) || (SIZEOF (.vector_13) <= (_vector_spacing << 0x5))), function at exception vector 13 too large)

.vector_14      0x9fc013c0        0x8
 *(.vector_14)
 .vector_14     0x9fc013c0        0x8 c:/program files/microchip/xc32/v1.42/bin/bin/../../lib/gcc/pic32mx/4.8.3/../../../../pic32mx/lib\libpic32.a(vector14.o)
                0x9fc013c0                __vector_dispatch_14
                0x00000001                ASSERT (((_vector_spacing == 0x0) || (SIZEOF (.vector_14) <= (_vector_spacing << 0x5))), function at exception vector 14 too large)

.vector_15      0x9fc013e0        0x8
 *(.vector_15)
 .vector_15     0x9fc013e0        0x8 c:/program files/microchip/xc32/v1.42/bin/bin/../../lib/gcc/pic32mx/4.8.3/../../../../pic32mx/lib\libpic32.a(vector15.o)
                0x9fc013e0                __vector_dispatch_15
                0x00000001                ASSERT (((_vector_spacing == 0x0) || (SIZEOF (.vector_15) <= (_vector_spacing << 0x5))), function at exception vector 15 too large)

.vector_16      0x9fc01400        0x8
 *(.vector_16)
 .vector_16     0x9fc01400        0x8 c:/program files/microchip/xc32/v1.42/bin/bin/../../lib/gcc/pic32mx/4.8.3/../../../../pic32mx/lib\libpic32.a(vector16.o)
                0x9fc01400                __vector_dispatch_16
                0x00000001                ASSERT (((_vector_spacing == 0x0) || (SIZEOF (.vector_16) <= (_vector_spacing << 0x5))), function at exception vector 16 too large)

.vector_17      0x9fc01420        0x8
 *(.vector_17)
 .vector_17     0x9fc01420        0x8 c:/program files/microchip/xc32/v1.42/bin/bin/../../lib/gcc/pic32mx/4.8.3/../../../../pic32mx/lib\libpic32.a(vector17.o)
                0x9fc01420                __vector_dispatch_17
                0x00000001                ASSERT (((_vector_spacing == 0x0) || (SIZEOF (.vector_17) <= (_vector_spacing << 0x5))), function at exception vector 17 too large)

.vector_18      0x9fc01440        0x8
 *(.vector_18)
 .vector_18     0x9fc01440        0x8 c:/program files/microchip/xc32/v1.42/bin/bin/../../lib/gcc/pic32mx/4.8.3/../../../../pic32mx/lib\libpic32.a(vector18.o)
                0x9fc01440                __vector_dispatch_18
                0x00000001                ASSERT (((_vector_spacing == 0x0) || (SIZEOF (.vector_18) <= (_vector_spacing << 0x5))), function at exception vector 18 too large)

.vector_19      0x9fc01460        0x8
 *(.vector_19)
 .vector_19     0x9fc01460        0x8 c:/program files/microchip/xc32/v1.42/bin/bin/../../lib/gcc/pic32mx/4.8.3/../../../../pic32mx/lib\libpic32.a(vector19.o)
                0x9fc01460                __vector_dispatch_19
                0x00000001                ASSERT (((_vector_spacing == 0x0) || (SIZEOF (.vector_19) <= (_vector_spacing << 0x5))), function at exception vector 19 too large)

.vector_20      0x9fc01480        0x8
 *(.vector_20)
 .vector_20     0x9fc01480        0x8 c:/program files/microchip/xc32/v1.42/bin/bin/../../lib/gcc/pic32mx/4.8.3/../../../../pic32mx/lib\libpic32.a(vector20.o)
                0x9fc01480                __vector_dispatch_20
                0x00000001                ASSERT (((_vector_spacing == 0x0) || (SIZEOF (.vector_20) <= (_vector_spacing << 0x5))), function at exception vector 20 too large)

.vector_21      0x9fc014a0        0x8
 *(.vector_21)
 .vector_21     0x9fc014a0        0x8 c:/program files/microchip/xc32/v1.42/bin/bin/../../lib/gcc/pic32mx/4.8.3/../../../../pic32mx/lib\libpic32.a(vector21.o)
                0x9fc014a0                __vector_dispatch_21
                0x00000001                ASSERT (((_vector_spacing == 0x0) || (SIZEOF (.vector_21) <= (_vector_spacing << 0x5))), function at exception vector 21 too large)

.vector_22      0x9fc014c0        0x8
 *(.vector_22)
 .vector_22     0x9fc014c0        0x8 c:/program files/microchip/xc32/v1.42/bin/bin/../../lib/gcc/pic32mx/4.8.3/../../../../pic32mx/lib\libpic32.a(vector22.o)
                0x9fc014c0                __vector_dispatch_22
                0x00000001                ASSERT (((_vector_spacing == 0x0) || (SIZEOF (.vector_22) <= (_vector_spacing << 0x5))), function at exception vector 22 too large)

.vector_23      0x9fc014e0       0x10
 *(.vector_23)
 .vector_23     0x9fc014e0       0x10 build/default/debug/_ext/1688732426/system_interrupt_a.o
                0x9fc014e0                __vector_dispatch_23
                0x00000001                ASSERT (((_vector_spacing == 0x0) || (SIZEOF (.vector_23) <= (_vector_spacing << 0x5))), function at exception vector 23 too large)

.vector_24      0x9fc01500       0x10
 *(.vector_24)
 .vector_24     0x9fc01500       0x10 build/default/debug/_ext/1688732426/system_interrupt_a.o
                0x9fc01500                __vector_dispatch_24
                0x00000001                ASSERT (((_vector_spacing == 0x0) || (SIZEOF (.vector_24) <= (_vector_spacing << 0x5))), function at exception vector 24 too large)

.vector_25      0x9fc01520        0x8
 *(.vector_25)
 .vector_25     0x9fc01520        0x8 c:/program files/microchip/xc32/v1.42/bin/bin/../../lib/gcc/pic32mx/4.8.3/../../../../pic32mx/lib\libpic32.a(vector25.o)
                0x9fc01520                __vector_dispatch_25
                0x00000001                ASSERT (((_vector_spacing == 0x0) || (SIZEOF (.vector_25) <= (_vector_spacing << 0x5))), function at exception vector 25 too large)

.vector_26      0x9fc01540        0x8
 *(.vector_26)
 .vector_26     0x9fc01540        0x8 c:/program files/microchip/xc32/v1.42/bin/bin/../../lib/gcc/pic32mx/4.8.3/../../../../pic32mx/lib\libpic32.a(vector26.o)
                0x9fc01540                __vector_dispatch_26
                0x00000001                ASSERT (((_vector_spacing == 0x0) || (SIZEOF (.vector_26) <= (_vector_spacing << 0x5))), function at exception vector 26 too large)

.vector_27      0x9fc01560        0x8
 *(.vector_27)
 .vector_27     0x9fc01560        0x8 c:/program files/microchip/xc32/v1.42/bin/bin/../../lib/gcc/pic32mx/4.8.3/../../../../pic32mx/lib\libpic32.a(vector27.o)
                0x9fc01560                __vector_dispatch_27
                0x00000001                ASSERT (((_vector_spacing == 0x0) || (SIZEOF (.vector_27) <= (_vector_spacing << 0x5))), function at exception vector 27 too large)

.vector_28      0x9fc01580        0x8
 *(.vector_28)
 .vector_28     0x9fc01580        0x8 c:/program files/microchip/xc32/v1.42/bin/bin/../../lib/gcc/pic32mx/4.8.3/../../../../pic32mx/lib\libpic32.a(vector28.o)
                0x9fc01580                __vector_dispatch_28
                0x00000001                ASSERT (((_vector_spacing == 0x0) || (SIZEOF (.vector_28) <= (_vector_spacing << 0x5))), function at exception vector 28 too large)

.vector_29      0x9fc015a0        0x8
 *(.vector_29)
 .vector_29     0x9fc015a0        0x8 c:/program files/microchip/xc32/v1.42/bin/bin/../../lib/gcc/pic32mx/4.8.3/../../../../pic32mx/lib\libpic32.a(vector29.o)
                0x9fc015a0                __vector_dispatch_29
                0x00000001                ASSERT (((_vector_spacing == 0x0) || (SIZEOF (.vector_29) <= (_vector_spacing << 0x5))), function at exception vector 29 too large)

.vector_30      0x9fc015c0        0x8
 *(.vector_30)
 .vector_30     0x9fc015c0        0x8 c:/program files/microchip/xc32/v1.42/bin/bin/../../lib/gcc/pic32mx/4.8.3/../../../../pic32mx/lib\libpic32.a(vector30.o)
                0x9fc015c0                __vector_dispatch_30
                0x00000001                ASSERT (((_vector_spacing == 0x0) || (SIZEOF (.vector_30) <= (_vector_spacing << 0x5))), function at exception vector 30 too large)

.vector_31      0x9fc015e0        0x8
 *(.vector_31)
 .vector_31     0x9fc015e0        0x8 c:/program files/microchip/xc32/v1.42/bin/bin/../../lib/gcc/pic32mx/4.8.3/../../../../pic32mx/lib\libpic32.a(vector31.o)
                0x9fc015e0                __vector_dispatch_31
                0x00000001                ASSERT (((_vector_spacing == 0x0) || (SIZEOF (.vector_31) <= (_vector_spacing << 0x5))), function at exception vector 31 too large)

.vector_32      0x9fc01600        0x8
 *(.vector_32)
 .vector_32     0x9fc01600        0x8 c:/program files/microchip/xc32/v1.42/bin/bin/../../lib/gcc/pic32mx/4.8.3/../../../../pic32mx/lib\libpic32.a(vector32.o)
                0x9fc01600                __vector_dispatch_32
                0x00000001                ASSERT (((_vector_spacing == 0x0) || (SIZEOF (.vector_32) <= (_vector_spacing << 0x5))), function at exception vector 32 too large)

.vector_33      0x9fc01620        0x8
 *(.vector_33)
 .vector_33     0x9fc01620        0x8 c:/program files/microchip/xc32/v1.42/bin/bin/../../lib/gcc/pic32mx/4.8.3/../../../../pic32mx/lib\libpic32.a(vector33.o)
                0x9fc01620                __vector_dispatch_33
                0x00000001                ASSERT (((_vector_spacing == 0x0) || (SIZEOF (.vector_33) <= (_vector_spacing << 0x5))), function at exception vector 33 too large)

.vector_34      0x9fc01640        0x8
 *(.vector_34)
 .vector_34     0x9fc01640        0x8 c:/program files/microchip/xc32/v1.42/bin/bin/../../lib/gcc/pic32mx/4.8.3/../../../../pic32mx/lib\libpic32.a(vector34.o)
                0x9fc01640                __vector_dispatch_34
                0x00000001                ASSERT (((_vector_spacing == 0x0) || (SIZEOF (.vector_34) <= (_vector_spacing << 0x5))), function at exception vector 34 too large)

.vector_35      0x9fc01660        0x8
 *(.vector_35)
 .vector_35     0x9fc01660        0x8 c:/program files/microchip/xc32/v1.42/bin/bin/../../lib/gcc/pic32mx/4.8.3/../../../../pic32mx/lib\libpic32.a(vector35.o)
                0x9fc01660                __vector_dispatch_35
                0x00000001                ASSERT (((_vector_spacing == 0x0) || (SIZEOF (.vector_35) <= (_vector_spacing << 0x5))), function at exception vector 35 too large)

.vector_36      0x9fc01680        0x8
 *(.vector_36)
 .vector_36     0x9fc01680        0x8 c:/program files/microchip/xc32/v1.42/bin/bin/../../lib/gcc/pic32mx/4.8.3/../../../../pic32mx/lib\libpic32.a(vector36.o)
                0x9fc01680                __vector_dispatch_36
                0x00000001                ASSERT (((_vector_spacing == 0x0) || (SIZEOF (.vector_36) <= (_vector_spacing << 0x5))), function at exception vector 36 too large)

.vector_37      0x9fc016a0        0x8
 *(.vector_37)
 .vector_37     0x9fc016a0        0x8 c:/program files/microchip/xc32/v1.42/bin/bin/../../lib/gcc/pic32mx/4.8.3/../../../../pic32mx/lib\libpic32.a(vector37.o)
                0x9fc016a0                __vector_dispatch_37
                0x00000001                ASSERT (((_vector_spacing == 0x0) || (SIZEOF (.vector_37) <= (_vector_spacing << 0x5))), function at exception vector 37 too large)

.vector_38      0x9fc016c0        0x8
 *(.vector_38)
 .vector_38     0x9fc016c0        0x8 c:/program files/microchip/xc32/v1.42/bin/bin/../../lib/gcc/pic32mx/4.8.3/../../../../pic32mx/lib\libpic32.a(vector38.o)
                0x9fc016c0                __vector_dispatch_38
                0x00000001                ASSERT (((_vector_spacing == 0x0) || (SIZEOF (.vector_38) <= (_vector_spacing << 0x5))), function at exception vector 38 too large)

.vector_39      0x9fc016e0        0x8
 *(.vector_39)
 .vector_39     0x9fc016e0        0x8 c:/program files/microchip/xc32/v1.42/bin/bin/../../lib/gcc/pic32mx/4.8.3/../../../../pic32mx/lib\libpic32.a(vector39.o)
                0x9fc016e0                __vector_dispatch_39
                0x00000001                ASSERT (((_vector_spacing == 0x0) || (SIZEOF (.vector_39) <= (_vector_spacing << 0x5))), function at exception vector 39 too large)

.vector_40      0x9fc01700        0x8
 *(.vector_40)
 .vector_40     0x9fc01700        0x8 c:/program files/microchip/xc32/v1.42/bin/bin/../../lib/gcc/pic32mx/4.8.3/../../../../pic32mx/lib\libpic32.a(vector40.o)
                0x9fc01700                __vector_dispatch_40
                0x00000001                ASSERT (((_vector_spacing == 0x0) || (SIZEOF (.vector_40) <= (_vector_spacing << 0x5))), function at exception vector 40 too large)

.vector_41      0x9fc01720        0x8
 *(.vector_41)
 .vector_41     0x9fc01720        0x8 c:/program files/microchip/xc32/v1.42/bin/bin/../../lib/gcc/pic32mx/4.8.3/../../../../pic32mx/lib\libpic32.a(vector41.o)
                0x9fc01720                __vector_dispatch_41
                0x00000001                ASSERT (((_vector_spacing == 0x0) || (SIZEOF (.vector_41) <= (_vector_spacing << 0x5))), function at exception vector 41 too large)

.vector_42      0x9fc01740        0x8
 *(.vector_42)
 .vector_42     0x9fc01740        0x8 c:/program files/microchip/xc32/v1.42/bin/bin/../../lib/gcc/pic32mx/4.8.3/../../../../pic32mx/lib\libpic32.a(vector42.o)
                0x9fc01740                __vector_dispatch_42
                0x00000001                ASSERT (((_vector_spacing == 0x0) || (SIZEOF (.vector_42) <= (_vector_spacing << 0x5))), function at exception vector 42 too large)

.vector_43      0x9fc01760        0x8
 *(.vector_43)
 .vector_43     0x9fc01760        0x8 c:/program files/microchip/xc32/v1.42/bin/bin/../../lib/gcc/pic32mx/4.8.3/../../../../pic32mx/lib\libpic32.a(vector43.o)
                0x9fc01760                __vector_dispatch_43
                0x00000001                ASSERT (((_vector_spacing == 0x0) || (SIZEOF (.vector_43) <= (_vector_spacing << 0x5))), function at exception vector 43 too large)

.vector_44      0x9fc01780        0x8
 *(.vector_44)
 .vector_44     0x9fc01780        0x8 c:/program files/microchip/xc32/v1.42/bin/bin/../../lib/gcc/pic32mx/4.8.3/../../../../pic32mx/lib\libpic32.a(vector44.o)
                0x9fc01780                __vector_dispatch_44
                0x00000001                ASSERT (((_vector_spacing == 0x0) || (SIZEOF (.vector_44) <= (_vector_spacing << 0x5))), function at exception vector 44 too large)

.vector_45      0x9fc017a0        0x8
 *(.vector_45)
 .vector_45     0x9fc017a0        0x8 c:/program files/microchip/xc32/v1.42/bin/bin/../../lib/gcc/pic32mx/4.8.3/../../../../pic32mx/lib\libpic32.a(vector45.o)
                0x9fc017a0                __vector_dispatch_45
                0x00000001                ASSERT (((_vector_spacing == 0x0) || (SIZEOF (.vector_45) <= (_vector_spacing << 0x5))), function at exception vector 45 too large)

.vector_46      0x9fc017c0        0x8
 *(.vector_46)
 .vector_46     0x9fc017c0        0x8 c:/program files/microchip/xc32/v1.42/bin/bin/../../lib/gcc/pic32mx/4.8.3/../../../../pic32mx/lib\libpic32.a(vector46.o)
                0x9fc017c0                __vector_dispatch_46
                0x00000001                ASSERT (((_vector_spacing == 0x0) || (SIZEOF (.vector_46) <= (_vector_spacing << 0x5))), function at exception vector 46 too large)

.vector_47      0x9fc017e0        0x8
 *(.vector_47)
 .vector_47     0x9fc017e0        0x8 c:/program files/microchip/xc32/v1.42/bin/bin/../../lib/gcc/pic32mx/4.8.3/../../../../pic32mx/lib\libpic32.a(vector47.o)
                0x9fc017e0                __vector_dispatch_47
                0x00000001                ASSERT (((_vector_spacing == 0x0) || (SIZEOF (.vector_47) <= (_vector_spacing << 0x5))), function at exception vector 47 too large)

.vector_48      0x9fc01800        0x8
 *(.vector_48)
 .vector_48     0x9fc01800        0x8 c:/program files/microchip/xc32/v1.42/bin/bin/../../lib/gcc/pic32mx/4.8.3/../../../../pic32mx/lib\libpic32.a(vector48.o)
                0x9fc01800                __vector_dispatch_48
                0x00000001                ASSERT (((_vector_spacing == 0x0) || (SIZEOF (.vector_48) <= (_vector_spacing << 0x5))), function at exception vector 48 too large)

.vector_49      0x9fc01820        0x8
 *(.vector_49)
 .vector_49     0x9fc01820        0x8 c:/program files/microchip/xc32/v1.42/bin/bin/../../lib/gcc/pic32mx/4.8.3/../../../../pic32mx/lib\libpic32.a(vector49.o)
                0x9fc01820                __vector_dispatch_49
                0x00000001                ASSERT (((_vector_spacing == 0x0) || (SIZEOF (.vector_49) <= (_vector_spacing << 0x5))), function at exception vector 49 too large)

.vector_50      0x9fc01840        0x8
 *(.vector_50)
 .vector_50     0x9fc01840        0x8 c:/program files/microchip/xc32/v1.42/bin/bin/../../lib/gcc/pic32mx/4.8.3/../../../../pic32mx/lib\libpic32.a(vector50.o)
                0x9fc01840                __vector_dispatch_50
                0x00000001                ASSERT (((_vector_spacing == 0x0) || (SIZEOF (.vector_50) <= (_vector_spacing << 0x5))), function at exception vector 50 too large)

.vector_51      0x9fc01860        0x8
 *(.vector_51)
 .vector_51     0x9fc01860        0x8 c:/program files/microchip/xc32/v1.42/bin/bin/../../lib/gcc/pic32mx/4.8.3/../../../../pic32mx/lib\libpic32.a(vector51.o)
                0x9fc01860                __vector_dispatch_51
                0x00000001                ASSERT (((_vector_spacing == 0x0) || (SIZEOF (.vector_51) <= (_vector_spacing << 0x5))), function at exception vector 51 too large)

.vector_52      0x9fc01880        0x0
 *(.vector_52)
                0x00000001                ASSERT (((_vector_spacing == 0x0) || (SIZEOF (.vector_52) <= (_vector_spacing << 0x5))), function at exception vector 52 too large)

.vector_53      0x9fc018a0        0x0
 *(.vector_53)
                0x00000001                ASSERT (((_vector_spacing == 0x0) || (SIZEOF (.vector_53) <= (_vector_spacing << 0x5))), function at exception vector 53 too large)

.vector_54      0x9fc018c0        0x0
 *(.vector_54)
                0x00000001                ASSERT (((_vector_spacing == 0x0) || (SIZEOF (.vector_54) <= (_vector_spacing << 0x5))), function at exception vector 54 too large)

.vector_55      0x9fc018e0        0x0
 *(.vector_55)
                0x00000001                ASSERT (((_vector_spacing == 0x0) || (SIZEOF (.vector_55) <= (_vector_spacing << 0x5))), function at exception vector 55 too large)

.vector_56      0x9fc01900        0x0
 *(.vector_56)
                0x00000001                ASSERT (((_vector_spacing == 0x0) || (SIZEOF (.vector_56) <= (_vector_spacing << 0x5))), function at exception vector 56 too large)

.vector_57      0x9fc01920        0x0
 *(.vector_57)
                0x00000001                ASSERT (((_vector_spacing == 0x0) || (SIZEOF (.vector_57) <= (_vector_spacing << 0x5))), function at exception vector 57 too large)

.vector_58      0x9fc01940        0x0
 *(.vector_58)
                0x00000001                ASSERT (((_vector_spacing == 0x0) || (SIZEOF (.vector_58) <= (_vector_spacing << 0x5))), function at exception vector 58 too large)

.vector_59      0x9fc01960        0x0
 *(.vector_59)
                0x00000001                ASSERT (((_vector_spacing == 0x0) || (SIZEOF (.vector_59) <= (_vector_spacing << 0x5))), function at exception vector 59 too large)

.vector_60      0x9fc01980        0x0
 *(.vector_60)
                0x00000001                ASSERT (((_vector_spacing == 0x0) || (SIZEOF (.vector_60) <= (_vector_spacing << 0x5))), function at exception vector 60 too large)

.vector_61      0x9fc019a0        0x0
 *(.vector_61)
                0x00000001                ASSERT (((_vector_spacing == 0x0) || (SIZEOF (.vector_61) <= (_vector_spacing << 0x5))), function at exception vector 61 too large)

.vector_62      0x9fc019c0        0x0
 *(.vector_62)
                0x00000001                ASSERT (((_vector_spacing == 0x0) || (SIZEOF (.vector_62) <= (_vector_spacing << 0x5))), function at exception vector 62 too large)

.vector_63      0x9fc019e0        0x0
 *(.vector_63)
                0x00000001                ASSERT (((_vector_spacing == 0x0) || (SIZEOF (.vector_63) <= (_vector_spacing << 0x5))), function at exception vector 63 too large)

.startup
 *(.startup)

.text           0x9d000000        0x0
 *(.stub .gnu.linkonce.t.*)
 *(.text.*personality*)
 *(.mips16.fn.*)
 *(.mips16.call.*)
 *(.gnu.warning)
                0x9d000000                . = ALIGN (0x4)

.init           0x9d000000        0x0
 *crti.o(.init)
 *crtbegin.o(.init)
 *(EXCLUDE_FILE(*crtn.o *crtend?.o *crtend.o) .init)
 *crtend.o(.init)
 *crtn.o(.init)
                0x9d000000                . = ALIGN (0x4)

.fini           0x9d000000        0x0
 *(.fini)
                0x9d000000                . = ALIGN (0x4)

.preinit_array  0x9d000000        0x0
                0x9d000000                PROVIDE (__preinit_array_start, .)
 *(.preinit_array)
                0x9d000000                PROVIDE (__preinit_array_end, .)
                0x9d000000                . = ALIGN (0x4)

.init_array     0x9d000000        0x0
                0x9d000000                PROVIDE (__init_array_start, .)
 *(SORT(.init_array.*))
 *(.init_array)
                0x9d000000                PROVIDE (__init_array_end, .)
                0x9d000000                . = ALIGN (0x4)

.fini_array     0x9d000000        0x0
                0x9d000000                PROVIDE (__fini_array_start, .)
 *(SORT(.fini_array.*))
 *(.fini_array)
                0x9d000000                PROVIDE (__fini_array_end, .)
                0x9d000000                . = ALIGN (0x4)

.ctors          0x9d000000        0x0
 *crtbegin.o(.ctors)
 *crtbegin?.o(.ctors)
 *(EXCLUDE_FILE(*crtend?.o *crtend.o) .ctors)
 *(SORT(.ctors.*))
 *(.ctors)
                0x9d000000                . = ALIGN (0x4)

.dtors          0x9d000000        0x0
 *crtbegin.o(.dtors)
 *crtbegin?.o(.dtors)
 *(EXCLUDE_FILE(*crtend?.o *crtend.o) .dtors)
 *(SORT(.dtors.*))
 *(.dtors)
                0x9d000000                . = ALIGN (0x4)

.rodata         0x9d000000        0x0
 *(.gnu.linkonce.r.*)
 *(.rodata1)
                0x9d000000                . = ALIGN (0x4)

.sdata2         0x9fc00490        0x0
 *(.sdata2 .sdata2.* .gnu.linkonce.s2.*)
                0x9fc00490                . = ALIGN (0x4)

.sbss2          0x9fc00490        0x0
 *(.sbss2 .sbss2.* .gnu.linkonce.sb2.*)
                0x9fc00490                . = ALIGN (0x4)

.eh_frame_hdr
 *(.eh_frame_hdr)
                0x9fc00490                . = ALIGN (0x4)

.eh_frame
 *(.eh_frame)
                0x9fc00490                . = ALIGN (0x4)

.gcc_except_table
 *(.gcc_except_table .gcc_except_table.*)
                0x9fc00490                . = ALIGN (0x4)

.dbg_data       0xa0000000      0x200
                0xa0000000                . = (. + DEFINED (_DEBUGGER)?0x200:0x0)
 *fill*         0xa0000000      0x200 

.jcr            0xa0000200        0x0
 *(.jcr)
                0xa0000200                . = ALIGN (0x4)

.eh_frame
 *(.eh_frame)
                0xa0000200                . = ALIGN (0x4)

.gcc_except_table
 *(.gcc_except_table .gcc_except_table.*)
                0xa0000200                . = ALIGN (0x4)

.persist        0xa0000200        0x0
                0xa0000200                _persist_begin = .
 *(.persist .persist.*)
 *(.pbss .pbss.*)
                0xa0000200                . = ALIGN (0x4)
                0xa0000200                _persist_end = .

.data           0xa0000200        0x0
 *(.gnu.linkonce.d.*)
 *(.data1)
                0xa0000200                . = ALIGN (0x4)
                0xa0000200                . = .
                0xa00081f0                _gp = (ALIGN (0x10) + 0x7ff0)

.got            0xa0000200        0x0
 *(.got.plt)
 *(.got)
                0xa0000200                . = ALIGN (0x4)

.sdata          0xa0000200        0x4
                0xa0000200                _sdata_begin = .
 *(.sdata .sdata.* .gnu.linkonce.s.*)
 .sdata         0xa0000200        0x4 build/default/debug/_ext/12131622/port.o
                0xa0000200                uxInterruptNesting
                0xa0000204                . = ALIGN (0x4)
                0xa0000204                _sdata_end = .

.lit8
 *(.lit8)

.lit4
 *(.lit4)
                0xa0000204                . = ALIGN (0x4)
                0xa0000204                _data_end = .
                0xa0000204                _bss_begin = .

.sbss           0xa0000204       0x80
                0xa0000204                _sbss_begin = .
 *(.dynsbss)
 *(.sbss .sbss.* .gnu.linkonce.sb.*)
 .sbss          0xa0000204        0xc build/default/debug/_ext/1688732426/system_exceptions.o
 .sbss          0xa0000210        0x1 build/default/debug/_ext/568870469/drv_spi.o
 *fill*         0xa0000211        0x3 
 .sbss          0xa0000214        0x8 build/default/debug/_ext/1856876499/heap_1.o
 .sbss          0xa000021c        0x4 build/default/debug/_ext/12131622/port.o
                0xa000021c                uxSavedTaskStackPointer
 .sbss          0xa0000220       0x30 build/default/debug/_ext/1128951024/tasks.o
                0xa0000220                uxSchedulerSuspended
                0xa0000224                xNextTaskUnblockTime
                0xa0000228                uxTaskNumber
                0xa000022c                xNumOfOverflows
                0xa0000230                xYieldPending
                0xa0000234                uxPendedTicks
                0xa0000238                xSchedulerRunning
                0xa000023c                uxTopReadyPriority
                0xa0000240                xTickCount
                0xa0000244                uxCurrentNumberOfTasks
                0xa0000248                uxTasksDeleted
                0xa000024c                pxCurrentTCB
 *(.scommon)
 .scommon       0xa0000250       0x18 build/default/debug/_ext/639803181/sys_clk_static.o
                0xa0000250                pxTaskNavCorrectionHandle
                0xa0000254                appData
                0xa000025c                px_APP_TasksHandle
                0xa0000260                pxTaskNavPredictionHandle
                0xa0000264                BaroAlt
 .scommon       0xa0000268        0x0 build/default/debug/_ext/1688732426/system_init.o
 .scommon       0xa0000268        0x0 build/default/debug/_ext/1688732426/system_interrupt.o
 .scommon       0xa0000268        0x0 build/default/debug/_ext/1688732426/system_exceptions.o
 .scommon       0xa0000268        0x0 build/default/debug/_ext/1688732426/system_tasks.o
 .scommon       0xa0000268        0xc build/default/debug/_ext/1360937237/app.o
                0xa0000268                SPI_handle
                0xa000026c                spi_status
                0xa0000270                SPI_bufferHandle
 .scommon       0xa0000274        0x8 build/default/debug/_ext/1271179505/sys_devcon.o
                0xa0000274                sysDevconObj
 .scommon       0xa000027c        0x8 build/default/debug/_ext/1128951024/tasks.o
                0xa000027c                pxDelayedTaskList
                0xa0000280                pxOverflowDelayedTaskList
                0xa0000284                _sbss_end = .
                0xa0000284                . = ALIGN (0x4)

.bss            0xa0000284     0x12ac
 *(.dynbss)
 *(COMMON)
 COMMON         0xa0000284       0x24 build/default/debug/_ext/639803181/sys_clk_static.o
                0xa0000284                Vel
                0xa0000290                Pos
                0xa000029c                mag_data
 COMMON         0xa00002a8     0x10e4 build/default/debug/_ext/1688732426/insgps16state_v1.o
                0xa00002a8                G
                0xa00005a8                K
                0xa0000828                H
                0xa0000aa8                F
                0xa0000ea8                P
                0xa00012a8                R
                0xa00012d0                Q
                0xa0001300                X
                0xa0001340                Nav
                0xa0001380                Be
 COMMON         0xa000138c        0xc build/default/debug/_ext/1688732426/system_init.o
                0xa000138c                sysObj
 COMMON         0xa0001398       0x16 build/default/debug/_ext/1360937237/app.o
                0xa0001398                SPI_ReadBuffer
                0xa00013a4                SPI_WriteBuffer
 *fill*         0xa00013ae        0x2 
 COMMON         0xa00013b0       0xb8 build/default/debug/_ext/260586732/drv_usart.o
                0xa00013b0                gDrvUSARTCommonDataObj
                0xa00013bc                gDrvUSARTClientObj
                0xa0001408                gDrvUSARTObj
 COMMON         0xa0001468       0xc8 build/default/debug/_ext/1128951024/tasks.o
                0xa0001468                pxReadyTasksLists
                0xa00014cc                xPendingReadyList
                0xa00014e0                xTasksWaitingTermination
                0xa00014f4                xSuspendedTaskList
                0xa0001508                xDelayedTaskList2
                0xa000151c                xDelayedTaskList1
                0xa0001530                . = ALIGN ((. != 0x0)?0x4:0x1)
                0xa0001530                . = ALIGN (0x4)
                0xa0001530                _end = .
                0xa0001530                _bss_end = .
                0x00020000                _bmxdudba_address = 0x20000
                0x00020000                _bmxdupba_address = 0x20000

/DISCARD/
 *(.pdr)
 *(.rel.dyn)
 *(.note.GNU-stack)
 *(.note.GNU-stack)
 *(.gnu_debuglink)
 *(.gnu.lto_*)
 *(.discard)

.gptab.sdata
 *(.gptab.data)
 *(.gptab.sdata)

.gptab.sbss
 *(.gptab.bss)
 *(.gptab.sbss)

.mdebug.abi32   0xa0001530        0x0
 *(.mdebug.abi32)
 .mdebug.abi32  0xa0001530        0x0 c:/program files/microchip/xc32/v1.42/bin/bin/../../lib/gcc/pic32mx/4.8.3/../../../../pic32mx/lib\software-debug-break.o
 .mdebug.abi32  0xa0001530        0x0 build/default/debug/_ext/977502197/drv_spi_tasks.o
 .mdebug.abi32  0xa0001530        0x0 build/default/debug/_ext/977502197/drv_spi_api.o
 .mdebug.abi32  0xa0001530        0x0 build/default/debug/_ext/977502197/drv_spi_master_rm_tasks.o
 .mdebug.abi32  0xa0001530        0x0 build/default/debug/_ext/639803181/sys_clk_static.o
 .mdebug.abi32  0xa0001530        0x0 build/default/debug/_ext/822048611/sys_ports_static.o
 .mdebug.abi32  0xa0001530        0x0 build/default/debug/_ext/1688732426/insgps16state_v1.o
 .mdebug.abi32  0xa0001530        0x0 build/default/debug/_ext/1688732426/system_init.o
 .mdebug.abi32  0xa0001530        0x0 build/default/debug/_ext/1688732426/system_interrupt.o
 .mdebug.abi32  0xa0001530        0x0 build/default/debug/_ext/1688732426/system_exceptions.o
 .mdebug.abi32  0xa0001530        0x0 build/default/debug/_ext/1688732426/system_tasks.o
 .mdebug.abi32  0xa0001530        0x0 build/default/debug/_ext/1688732426/rtos_hooks.o
 .mdebug.abi32  0xa0001530        0x0 build/default/debug/_ext/1360937237/app.o
 .mdebug.abi32  0xa0001530        0x0 build/default/debug/_ext/1360937237/main.o
 .mdebug.abi32  0xa0001530        0x0 build/default/debug/_ext/1890346972/bsp_sys_init.o
 .mdebug.abi32  0xa0001530        0x0 build/default/debug/_ext/568870469/drv_spi.o
 .mdebug.abi32  0xa0001530        0x0 build/default/debug/_ext/465164171/drv_spi_sys_queue_fifo.o
 .mdebug.abi32  0xa0001530        0x0 build/default/debug/_ext/260586732/drv_usart.o
 .mdebug.abi32  0xa0001530        0x0 build/default/debug/_ext/260586732/drv_usart_read_write.o
 .mdebug.abi32  0xa0001530        0x0 build/default/debug/_ext/24337685/osal_freertos.o
 .mdebug.abi32  0xa0001530        0x0 build/default/debug/_ext/1271179505/sys_devcon.o
 .mdebug.abi32  0xa0001530        0x0 build/default/debug/_ext/1271179505/sys_devcon_pic32mx.o
 .mdebug.abi32  0xa0001530        0x0 build/default/debug/_ext/122796885/sys_int_pic32.o
 .mdebug.abi32  0xa0001530        0x0 build/default/debug/_ext/1856876499/heap_1.o
 .mdebug.abi32  0xa0001530        0x0 build/default/debug/_ext/12131622/port.o
 .mdebug.abi32  0xa0001530        0x0 build/default/debug/_ext/1128951024/croutine.o
 .mdebug.abi32  0xa0001530        0x0 build/default/debug/_ext/1128951024/list.o
 .mdebug.abi32  0xa0001530        0x0 build/default/debug/_ext/1128951024/queue.o
 .mdebug.abi32  0xa0001530        0x0 build/default/debug/_ext/1128951024/tasks.o
 .mdebug.abi32  0xa0001530        0x0 build/default/debug/_ext/1128951024/timers.o
 .mdebug.abi32  0xa0001530        0x0 build/default/debug/_ext/1128951024/event_groups.o
 .mdebug.abi32  0xa0001530        0x0 c:/program files/microchip/xc32/v1.42/bin/bin/../../lib/gcc/pic32mx/4.8.3/../../../../pic32mx/lib\libpic32.a(default-bootstrap-exception-handler.o)
 .mdebug.abi32  0xa0001530        0x0 c:/program files/microchip/xc32/v1.42/bin/bin/../../lib/gcc/pic32mx/4.8.3/../../../../pic32mx/lib\libpic32.a(default-on-reset.o)
 .mdebug.abi32  0xa0001530        0x0 c:/program files/microchip/xc32/v1.42/bin/bin/../../lib/gcc/pic32mx/4.8.3/../../../../pic32mx/lib\libpic32.a(default-on-bootstrap.o)
 .mdebug.abi32  0xa0001530        0x0 c:/program files/microchip/xc32/v1.42/bin/bin/../../lib/gcc/pic32mx/4.8.3/../../../../pic32mx/lib\libpic32.a(defaultinterrupt.o)
 .mdebug.abi32  0xa0001530        0x0 c:/program files/microchip/xc32/v1.42/bin/bin/../../lib/gcc/pic32mx/4.8.3/../../../../pic32mx/lib\libm.a(w_sqrtf.o)
 .mdebug.abi32  0xa0001530        0x0 c:/program files/microchip/xc32/v1.42/bin/bin/../../lib/gcc/pic32mx/4.8.3/../../../../pic32mx/lib\libm.a(s_lib_ver.o)
 .mdebug.abi32  0xa0001530        0x0 c:/program files/microchip/xc32/v1.42/bin/bin/../../lib/gcc/pic32mx/4.8.3/../../../../pic32mx/lib\libc.a(errno.o)
 .mdebug.abi32  0xa0001530        0x0 c:/program files/microchip/xc32/v1.42/bin/bin/../../lib/gcc/pic32mx/4.8.3/../../../../pic32mx/lib\libc.a(strchr.o)
 .mdebug.abi32  0xa0001530        0x0 c:/program files/microchip/xc32/v1.42/bin/bin/../../lib/gcc/pic32mx/4.8.3/../../../../pic32mx/lib\libc.a(strncpy.o)
 .mdebug.abi32  0xa0001530        0x0 c:/program files/microchip/xc32/v1.42/bin/bin/../../lib/gcc/pic32mx/4.8.3/../../../../pic32mx/lib\libc.a(strtof.o)
 .mdebug.abi32  0xa0001530        0x0 c:/program files/microchip/xc32/v1.42/bin/bin/../../lib/gcc/pic32mx/4.8.3/../../../../pic32mx/lib\libc.a(strtok.o)
 .mdebug.abi32  0xa0001530        0x0 c:/program files/microchip/xc32/v1.42/bin/bin/../../lib/gcc/pic32mx/4.8.3/../../../../pic32mx/lib\libc.a(strcspn.o)
 .mdebug.abi32  0xa0001530        0x0 c:/program files/microchip/xc32/v1.42/bin/bin/../../lib/gcc/pic32mx/4.8.3/../../../../pic32mx/lib\libc.a(strspn.o)
 .mdebug.abi32  0xa0001530        0x0 c:/program files/microchip/xc32/v1.42/bin/bin/../../lib/gcc/pic32mx/4.8.3/../../../../pic32mx/lib\libm.a(__strtof.o)
 .mdebug.abi32  0xa0001530        0x0 c:/program files/microchip/xc32/v1.42/bin/bin/../../lib/gcc/pic32mx/4.8.3/../../../../pic32mx/lib\libe.a(_ldexpf.o)
 .mdebug.abi32  0xa0001530        0x0 c:/program files/microchip/xc32/v1.42/bin/bin/../../lib/gcc/pic32mx/4.8.3/../../../../pic32mx/lib\libc.a(ctype.o)

.mdebug.abiN32
 *(.mdebug.abiN32)

.mdebug.abi64
 *(.mdebug.abi64)

.mdebug.abiO64
 *(.mdebug.abiO64)

.mdebug.eabi32
 *(.mdebug.eabi32)

.mdebug.eabi64
 *(.mdebug.eabi64)

.gcc_compiled_long32
 *(.gcc_compiled_long32)

.gcc_compiled_long64
 *(.gcc_compiled_long64)

.stab
 *(.stab)

.stabstr
 *(.stabstr)

.stab.excl
 *(.stab.excl)

.stab.exclstr
 *(.stab.exclstr)

.stab.index
 *(.stab.index)

.stab.indexstr
 *(.stab.indexstr)

.comment        0x00000000      0x18f
 *(.comment)
 .comment       0x00000000       0x3c c:/program files/microchip/xc32/v1.42/bin/bin/../../lib/gcc/pic32mx/4.8.3/../../../../pic32mx/lib\software-debug-break.o
                                 0x3d (size before relaxing)
 .comment       0x00000000       0x3d build/default/debug/_ext/977502197/drv_spi_tasks.o
 .comment       0x00000000       0x3d build/default/debug/_ext/977502197/drv_spi_api.o
 .comment       0x00000000       0x3d build/default/debug/_ext/977502197/drv_spi_master_rm_tasks.o
 .comment       0x00000000       0x3d build/default/debug/_ext/639803181/sys_clk_static.o
 .comment       0x00000000       0x3d build/default/debug/_ext/822048611/sys_ports_static.o
 .comment       0x00000000       0x3d build/default/debug/_ext/1688732426/insgps16state_v1.o
 .comment       0x00000000       0x3d build/default/debug/_ext/1688732426/system_init.o
 .comment       0x00000000       0x3d build/default/debug/_ext/1688732426/system_interrupt.o
 .comment       0x00000000       0x3d build/default/debug/_ext/1688732426/system_exceptions.o
 .comment       0x00000000       0x3d build/default/debug/_ext/1688732426/system_tasks.o
 .comment       0x00000000       0x3d build/default/debug/_ext/1688732426/rtos_hooks.o
 .comment       0x00000000       0x3d build/default/debug/_ext/1360937237/app.o
 .comment       0x00000000       0x3d build/default/debug/_ext/1360937237/main.o
 .comment       0x00000000       0x3d build/default/debug/_ext/1890346972/bsp_sys_init.o
 .comment       0x00000000       0x3d build/default/debug/_ext/568870469/drv_spi.o
 .comment       0x00000000       0x3d build/default/debug/_ext/465164171/drv_spi_sys_queue_fifo.o
 .comment       0x00000000       0x3d build/default/debug/_ext/260586732/drv_usart.o
 .comment       0x00000000       0x3d build/default/debug/_ext/260586732/drv_usart_read_write.o
 .comment       0x00000000       0x3d build/default/debug/_ext/24337685/osal_freertos.o
 .comment       0x00000000       0x3d build/default/debug/_ext/1271179505/sys_devcon.o
 .comment       0x00000000       0x3d build/default/debug/_ext/1271179505/sys_devcon_pic32mx.o
 .comment       0x00000000       0x3d build/default/debug/_ext/122796885/sys_int_pic32.o
 .comment       0x00000000       0x3d build/default/debug/_ext/1856876499/heap_1.o
 .comment       0x00000000       0x3d build/default/debug/_ext/12131622/port.o
 .comment       0x00000000       0x3d build/default/debug/_ext/1128951024/croutine.o
 .comment       0x00000000       0x3d build/default/debug/_ext/1128951024/list.o
 .comment       0x00000000       0x3d build/default/debug/_ext/1128951024/queue.o
 .comment       0x00000000       0x3d build/default/debug/_ext/1128951024/tasks.o
 .comment       0x00000000       0x3d build/default/debug/_ext/1128951024/timers.o
 .comment       0x00000000       0x3d build/default/debug/_ext/1128951024/event_groups.o
 .comment       0x0000003c       0x18 c:/program files/microchip/xc32/v1.42/bin/bin/../../lib/gcc/pic32mx/4.8.3/../../../../pic32mx/lib\libpic32.a(memset.o)
                                 0x19 (size before relaxing)
 .comment       0x00000000       0x3d c:/program files/microchip/xc32/v1.42/bin/bin/../../lib/gcc/pic32mx/4.8.3/../../../../pic32mx/lib\libpic32.a(default-bootstrap-exception-handler.o)
 .comment       0x00000000       0x3d c:/program files/microchip/xc32/v1.42/bin/bin/../../lib/gcc/pic32mx/4.8.3/../../../../pic32mx/lib\libpic32.a(default-on-reset.o)
 .comment       0x00000000       0x3d c:/program files/microchip/xc32/v1.42/bin/bin/../../lib/gcc/pic32mx/4.8.3/../../../../pic32mx/lib\libpic32.a(default-on-bootstrap.o)
 .comment       0x00000000       0x3d c:/program files/microchip/xc32/v1.42/bin/bin/../../lib/gcc/pic32mx/4.8.3/../../../../pic32mx/lib\libpic32.a(defaultinterrupt.o)
 .comment       0x00000000       0x3d c:/program files/microchip/xc32/v1.42/bin/bin/../../lib/gcc/pic32mx/4.8.3/../../../../pic32mx/lib\libm.a(w_sqrtf.o)
 .comment       0x00000000       0x3d c:/program files/microchip/xc32/v1.42/bin/bin/../../lib/gcc/pic32mx/4.8.3/../../../../pic32mx/lib\libm.a(s_lib_ver.o)
 .comment       0x00000000       0x3d c:/program files/microchip/xc32/v1.42/bin/bin/../../lib/gcc/pic32mx/4.8.3/../../../../pic32mx/lib\libc.a(errno.o)
 .comment       0x00000000       0x3d c:/program files/microchip/xc32/v1.42/bin/bin/../../lib/gcc/pic32mx/4.8.3/../../../../pic32mx/lib\libc.a(strchr.o)
 .comment       0x00000000       0x3d c:/program files/microchip/xc32/v1.42/bin/bin/../../lib/gcc/pic32mx/4.8.3/../../../../pic32mx/lib\libc.a(strncpy.o)
 .comment       0x00000000       0x3d c:/program files/microchip/xc32/v1.42/bin/bin/../../lib/gcc/pic32mx/4.8.3/../../../../pic32mx/lib\libc.a(strtof.o)
 .comment       0x00000000       0x3d c:/program files/microchip/xc32/v1.42/bin/bin/../../lib/gcc/pic32mx/4.8.3/../../../../pic32mx/lib\libc.a(strtok.o)
 .comment       0x00000000       0x3d c:/program files/microchip/xc32/v1.42/bin/bin/../../lib/gcc/pic32mx/4.8.3/../../../../pic32mx/lib\libc.a(strcspn.o)
 .comment       0x00000000       0x3d c:/program files/microchip/xc32/v1.42/bin/bin/../../lib/gcc/pic32mx/4.8.3/../../../../pic32mx/lib\libc.a(strspn.o)
 .comment       0x00000054       0x9d c:/program files/microchip/xc32/v1.42/bin/bin/../../lib/gcc/pic32mx/4.8.3/../../../../pic32mx/lib\libm.a(__strtof.o)
                                 0xda (size before relaxing)
 .comment       0x000000f1       0x50 c:/program files/microchip/xc32/v1.42/bin/bin/../../lib/gcc/pic32mx/4.8.3/../../../../pic32mx/lib\libe.a(_ldexpf.o)
                                 0xdb (size before relaxing)
 .comment       0x00000141       0x4e c:/program files/microchip/xc32/v1.42/bin/bin/../../lib/gcc/pic32mx/4.8.3/../../../../pic32mx/lib\libc.a(ctype.o)
                                 0x8b (size before relaxing)

.debug
 *(.debug)

.line
 *(.line)

.debug_srcinfo
 *(.debug_srcinfo)

.debug_sfnames
 *(.debug_sfnames)

.debug_aranges  0x00000000      0xe40
 *(.debug_aranges)
 .debug_aranges
                0x00000000       0x20 c:/program files/microchip/xc32/v1.42/bin/bin/../../lib/gcc/pic32mx/4.8.3/../../../../pic32mx/lib\software-debug-break.o
 .debug_aranges
                0x00000020       0x20 build/default/debug/_ext/977502197/drv_spi_tasks.o
 .debug_aranges
                0x00000040       0x28 build/default/debug/_ext/977502197/drv_spi_api.o
 .debug_aranges
                0x00000068       0x28 build/default/debug/_ext/977502197/drv_spi_master_rm_tasks.o
 .debug_aranges
                0x00000090       0x50 build/default/debug/_ext/639803181/sys_clk_static.o
 .debug_aranges
                0x000000e0      0x108 build/default/debug/_ext/822048611/sys_ports_static.o
 .debug_aranges
                0x000001e8       0xf0 build/default/debug/_ext/1688732426/insgps16state_v1.o
 .debug_aranges
                0x000002d8       0x20 build/default/debug/_ext/1688732426/system_init.o
 .debug_aranges
                0x000002f8       0x38 build/default/debug/_ext/1688732426/system_interrupt.o
 .debug_aranges
                0x00000330       0x20 build/default/debug/_ext/1688732426/system_exceptions.o
 .debug_aranges
                0x00000350       0x48 build/default/debug/_ext/1688732426/system_tasks.o
 .debug_aranges
                0x00000398       0x58 build/default/debug/_ext/1688732426/system_interrupt_a.o
 .debug_aranges
                0x000003f0       0x28 build/default/debug/_ext/1688732426/rtos_hooks.o
 .debug_aranges
                0x00000418       0x48 build/default/debug/_ext/1360937237/app.o
 .debug_aranges
                0x00000460       0x20 build/default/debug/_ext/1360937237/main.o
 .debug_aranges
                0x00000480       0x60 build/default/debug/_ext/1890346972/bsp_sys_init.o
 .debug_aranges
                0x000004e0       0x98 build/default/debug/_ext/568870469/drv_spi.o
 .debug_aranges
                0x00000578       0xd8 build/default/debug/_ext/465164171/drv_spi_sys_queue_fifo.o
 .debug_aranges
                0x00000650       0xd8 build/default/debug/_ext/260586732/drv_usart.o
 .debug_aranges
                0x00000728       0x28 build/default/debug/_ext/260586732/drv_usart_read_write.o
 .debug_aranges
                0x00000750       0x88 build/default/debug/_ext/24337685/osal_freertos.o
 .debug_aranges
                0x000007d8       0x78 build/default/debug/_ext/1271179505/sys_devcon.o
 .debug_aranges
                0x00000850       0x20 build/default/debug/_ext/1271179505/sys_devcon_pic32mx.o
 .debug_aranges
                0x00000870       0x48 build/default/debug/_ext/122796885/sys_int_pic32.o
 .debug_aranges
                0x000008b8       0x38 build/default/debug/_ext/1856876499/heap_1.o
 .debug_aranges
                0x000008f0       0x58 build/default/debug/_ext/12131622/port.o
 .debug_aranges
                0x00000948       0x20 build/default/debug/_ext/12131622/port_asm.o
 .debug_aranges
                0x00000968       0x18 build/default/debug/_ext/1128951024/croutine.o
 .debug_aranges
                0x00000980       0x40 build/default/debug/_ext/1128951024/list.o
 .debug_aranges
                0x000009c0       0xb0 build/default/debug/_ext/1128951024/queue.o
 .debug_aranges
                0x00000a70      0x1b0 build/default/debug/_ext/1128951024/tasks.o
 .debug_aranges
                0x00000c20       0x18 build/default/debug/_ext/1128951024/timers.o
 .debug_aranges
                0x00000c38       0x60 build/default/debug/_ext/1128951024/event_groups.o
 .debug_aranges
                0x00000c98       0x20 c:/program files/microchip/xc32/v1.42/bin/bin/../../lib/gcc/pic32mx/4.8.3/../../../../pic32mx/lib\libpic32.a(default-bootstrap-exception-handler.o)
 .debug_aranges
                0x00000cb8       0x20 c:/program files/microchip/xc32/v1.42/bin/bin/../../lib/gcc/pic32mx/4.8.3/../../../../pic32mx/lib\libpic32.a(default-on-reset.o)
 .debug_aranges
                0x00000cd8       0x20 c:/program files/microchip/xc32/v1.42/bin/bin/../../lib/gcc/pic32mx/4.8.3/../../../../pic32mx/lib\libpic32.a(default-on-bootstrap.o)
 .debug_aranges
                0x00000cf8       0x20 c:/program files/microchip/xc32/v1.42/bin/bin/../../lib/gcc/pic32mx/4.8.3/../../../../pic32mx/lib\libpic32.a(defaultinterrupt.o)
 .debug_aranges
                0x00000d18       0x20 c:/program files/microchip/xc32/v1.42/bin/bin/../../lib/gcc/pic32mx/4.8.3/../../../../pic32mx/lib\libm.a(w_sqrtf.o)
 .debug_aranges
                0x00000d38       0x20 c:/program files/microchip/xc32/v1.42/bin/bin/../../lib/gcc/pic32mx/4.8.3/../../../../pic32mx/lib\libc.a(strchr.o)
 .debug_aranges
                0x00000d58       0x20 c:/program files/microchip/xc32/v1.42/bin/bin/../../lib/gcc/pic32mx/4.8.3/../../../../pic32mx/lib\libc.a(strncpy.o)
 .debug_aranges
                0x00000d78       0x28 c:/program files/microchip/xc32/v1.42/bin/bin/../../lib/gcc/pic32mx/4.8.3/../../../../pic32mx/lib\libc.a(strtof.o)
 .debug_aranges
                0x00000da0       0x20 c:/program files/microchip/xc32/v1.42/bin/bin/../../lib/gcc/pic32mx/4.8.3/../../../../pic32mx/lib\libc.a(strtok.o)
 .debug_aranges
                0x00000dc0       0x20 c:/program files/microchip/xc32/v1.42/bin/bin/../../lib/gcc/pic32mx/4.8.3/../../../../pic32mx/lib\libc.a(strcspn.o)
 .debug_aranges
                0x00000de0       0x20 c:/program files/microchip/xc32/v1.42/bin/bin/../../lib/gcc/pic32mx/4.8.3/../../../../pic32mx/lib\libc.a(strspn.o)
 .debug_aranges
                0x00000e00       0x20 c:/program files/microchip/xc32/v1.42/bin/bin/../../lib/gcc/pic32mx/4.8.3/../../../../pic32mx/lib\libm.a(__strtof.o)
 .debug_aranges
                0x00000e20       0x20 c:/program files/microchip/xc32/v1.42/bin/bin/../../lib/gcc/pic32mx/4.8.3/../../../../pic32mx/lib\libe.a(_ldexpf.o)

.debug_pubnames
 *(.debug_pubnames)

.debug_info     0x00000000    0x385ee
 *(.debug_info .gnu.linkonce.wi.*)
 .debug_info    0x00000000       0xe5 c:/program files/microchip/xc32/v1.42/bin/bin/../../lib/gcc/pic32mx/4.8.3/../../../../pic32mx/lib\software-debug-break.o
 .debug_info    0x000000e5     0x27f3 build/default/debug/_ext/977502197/drv_spi_tasks.o
 .debug_info    0x000028d8     0x5020 build/default/debug/_ext/977502197/drv_spi_api.o
 .debug_info    0x000078f8     0x20d2 build/default/debug/_ext/977502197/drv_spi_master_rm_tasks.o
 .debug_info    0x000099ca     0x1aaa build/default/debug/_ext/639803181/sys_clk_static.o
 .debug_info    0x0000b474     0x3ebc build/default/debug/_ext/822048611/sys_ports_static.o
 .debug_info    0x0000f330     0x11e8 build/default/debug/_ext/1688732426/insgps16state_v1.o
 .debug_info    0x00010518     0x3dee build/default/debug/_ext/1688732426/system_init.o
 .debug_info    0x00014306     0x1dad build/default/debug/_ext/1688732426/system_interrupt.o
 .debug_info    0x000160b3      0xe1e build/default/debug/_ext/1688732426/system_exceptions.o
 .debug_info    0x00016ed1     0x19e2 build/default/debug/_ext/1688732426/system_tasks.o
 .debug_info    0x000188b3       0x93 build/default/debug/_ext/1688732426/system_interrupt_a.o
 .debug_info    0x00018946      0x24d build/default/debug/_ext/1688732426/rtos_hooks.o
 .debug_info    0x00018b93     0x1db5 build/default/debug/_ext/1360937237/app.o
 .debug_info    0x0001a948      0x1a3 build/default/debug/_ext/1360937237/main.o
 .debug_info    0x0001aaeb      0xfea build/default/debug/_ext/1890346972/bsp_sys_init.o
 .debug_info    0x0001bad5     0x4c17 build/default/debug/_ext/568870469/drv_spi.o
 .debug_info    0x000206ec     0x1b1a build/default/debug/_ext/465164171/drv_spi_sys_queue_fifo.o
 .debug_info    0x00022206     0x7782 build/default/debug/_ext/260586732/drv_usart.o
 .debug_info    0x00029988     0x2f1f build/default/debug/_ext/260586732/drv_usart_read_write.o
 .debug_info    0x0002c8a7      0xa9f build/default/debug/_ext/24337685/osal_freertos.o
 .debug_info    0x0002d346     0x148a build/default/debug/_ext/1271179505/sys_devcon.o
 .debug_info    0x0002e7d0      0xf3f build/default/debug/_ext/1271179505/sys_devcon_pic32mx.o
 .debug_info    0x0002f70f     0x17ae build/default/debug/_ext/122796885/sys_int_pic32.o
 .debug_info    0x00030ebd      0x36f build/default/debug/_ext/1856876499/heap_1.o
 .debug_info    0x0003122c     0x11a3 build/default/debug/_ext/12131622/port.o
 .debug_info    0x000323cf       0xb4 build/default/debug/_ext/12131622/port_asm.o
 .debug_info    0x00032483      0x166 build/default/debug/_ext/1128951024/croutine.o
 .debug_info    0x000325e9      0x45b build/default/debug/_ext/1128951024/list.o
 .debug_info    0x00032a44     0x1747 build/default/debug/_ext/1128951024/queue.o
 .debug_info    0x0003418b     0x2adb build/default/debug/_ext/1128951024/tasks.o
 .debug_info    0x00036c66      0x164 build/default/debug/_ext/1128951024/timers.o
 .debug_info    0x00036dca      0xd4a build/default/debug/_ext/1128951024/event_groups.o
 .debug_info    0x00037b14       0xf5 c:/program files/microchip/xc32/v1.42/bin/bin/../../lib/gcc/pic32mx/4.8.3/../../../../pic32mx/lib\libpic32.a(default-bootstrap-exception-handler.o)
 .debug_info    0x00037c09       0xcf c:/program files/microchip/xc32/v1.42/bin/bin/../../lib/gcc/pic32mx/4.8.3/../../../../pic32mx/lib\libpic32.a(default-on-reset.o)
 .debug_info    0x00037cd8       0xd7 c:/program files/microchip/xc32/v1.42/bin/bin/../../lib/gcc/pic32mx/4.8.3/../../../../pic32mx/lib\libpic32.a(default-on-bootstrap.o)
 .debug_info    0x00037daf       0xe9 c:/program files/microchip/xc32/v1.42/bin/bin/../../lib/gcc/pic32mx/4.8.3/../../../../pic32mx/lib\libpic32.a(defaultinterrupt.o)
 .debug_info    0x00037e98       0xbf c:/program files/microchip/xc32/v1.42/bin/bin/../../lib/gcc/pic32mx/4.8.3/../../../../pic32mx/lib\libm.a(w_sqrtf.o)
 .debug_info    0x00037f57       0xc8 c:/program files/microchip/xc32/v1.42/bin/bin/../../lib/gcc/pic32mx/4.8.3/../../../../pic32mx/lib\libc.a(strchr.o)
 .debug_info    0x0003801f       0xca c:/program files/microchip/xc32/v1.42/bin/bin/../../lib/gcc/pic32mx/4.8.3/../../../../pic32mx/lib\libc.a(strncpy.o)
 .debug_info    0x000380e9       0xf7 c:/program files/microchip/xc32/v1.42/bin/bin/../../lib/gcc/pic32mx/4.8.3/../../../../pic32mx/lib\libc.a(strtof.o)
 .debug_info    0x000381e0       0xc8 c:/program files/microchip/xc32/v1.42/bin/bin/../../lib/gcc/pic32mx/4.8.3/../../../../pic32mx/lib\libc.a(strtok.o)
 .debug_info    0x000382a8       0xca c:/program files/microchip/xc32/v1.42/bin/bin/../../lib/gcc/pic32mx/4.8.3/../../../../pic32mx/lib\libc.a(strcspn.o)
 .debug_info    0x00038372       0xc8 c:/program files/microchip/xc32/v1.42/bin/bin/../../lib/gcc/pic32mx/4.8.3/../../../../pic32mx/lib\libc.a(strspn.o)
 .debug_info    0x0003843a       0xd9 c:/program files/microchip/xc32/v1.42/bin/bin/../../lib/gcc/pic32mx/4.8.3/../../../../pic32mx/lib\libm.a(__strtof.o)
 .debug_info    0x00038513       0xdb c:/program files/microchip/xc32/v1.42/bin/bin/../../lib/gcc/pic32mx/4.8.3/../../../../pic32mx/lib\libe.a(_ldexpf.o)

.debug_abbrev   0x00000000     0x424b
 *(.debug_abbrev)
 .debug_abbrev  0x00000000       0x28 c:/program files/microchip/xc32/v1.42/bin/bin/../../lib/gcc/pic32mx/4.8.3/../../../../pic32mx/lib\software-debug-break.o
 .debug_abbrev  0x00000028      0x2b2 build/default/debug/_ext/977502197/drv_spi_tasks.o
 .debug_abbrev  0x000002da      0x2ed build/default/debug/_ext/977502197/drv_spi_api.o
 .debug_abbrev  0x000005c7      0x1f3 build/default/debug/_ext/977502197/drv_spi_master_rm_tasks.o
 .debug_abbrev  0x000007ba      0x2b0 build/default/debug/_ext/639803181/sys_clk_static.o
 .debug_abbrev  0x00000a6a      0x222 build/default/debug/_ext/822048611/sys_ports_static.o
 .debug_abbrev  0x00000c8c      0x227 build/default/debug/_ext/1688732426/insgps16state_v1.o
 .debug_abbrev  0x00000eb3      0x2fd build/default/debug/_ext/1688732426/system_init.o
 .debug_abbrev  0x000011b0      0x1e4 build/default/debug/_ext/1688732426/system_interrupt.o
 .debug_abbrev  0x00001394       0xd9 build/default/debug/_ext/1688732426/system_exceptions.o
 .debug_abbrev  0x0000146d      0x23b build/default/debug/_ext/1688732426/system_tasks.o
 .debug_abbrev  0x000016a8       0x12 build/default/debug/_ext/1688732426/system_interrupt_a.o
 .debug_abbrev  0x000016ba       0x97 build/default/debug/_ext/1688732426/rtos_hooks.o
 .debug_abbrev  0x00001751      0x282 build/default/debug/_ext/1360937237/app.o
 .debug_abbrev  0x000019d3       0x93 build/default/debug/_ext/1360937237/main.o
 .debug_abbrev  0x00001a66      0x187 build/default/debug/_ext/1890346972/bsp_sys_init.o
 .debug_abbrev  0x00001bed      0x466 build/default/debug/_ext/568870469/drv_spi.o
 .debug_abbrev  0x00002053      0x270 build/default/debug/_ext/465164171/drv_spi_sys_queue_fifo.o
 .debug_abbrev  0x000022c3      0x471 build/default/debug/_ext/260586732/drv_usart.o
 .debug_abbrev  0x00002734      0x333 build/default/debug/_ext/260586732/drv_usart_read_write.o
 .debug_abbrev  0x00002a67      0x1fe build/default/debug/_ext/24337685/osal_freertos.o
 .debug_abbrev  0x00002c65      0x2a1 build/default/debug/_ext/1271179505/sys_devcon.o
 .debug_abbrev  0x00002f06      0x16d build/default/debug/_ext/1271179505/sys_devcon_pic32mx.o
 .debug_abbrev  0x00003073      0x1ea build/default/debug/_ext/122796885/sys_int_pic32.o
 .debug_abbrev  0x0000325d      0x13f build/default/debug/_ext/1856876499/heap_1.o
 .debug_abbrev  0x0000339c      0x2cf build/default/debug/_ext/12131622/port.o
 .debug_abbrev  0x0000366b       0x14 build/default/debug/_ext/12131622/port_asm.o
 .debug_abbrev  0x0000367f       0x1b build/default/debug/_ext/1128951024/croutine.o
 .debug_abbrev  0x0000369a       0xf1 build/default/debug/_ext/1128951024/list.o
 .debug_abbrev  0x0000378b      0x2e0 build/default/debug/_ext/1128951024/queue.o
 .debug_abbrev  0x00003a6b      0x2e2 build/default/debug/_ext/1128951024/tasks.o
 .debug_abbrev  0x00003d4d       0x1b build/default/debug/_ext/1128951024/timers.o
 .debug_abbrev  0x00003d68      0x29a build/default/debug/_ext/1128951024/event_groups.o
 .debug_abbrev  0x00004002       0x28 c:/program files/microchip/xc32/v1.42/bin/bin/../../lib/gcc/pic32mx/4.8.3/../../../../pic32mx/lib\libpic32.a(default-bootstrap-exception-handler.o)
 .debug_abbrev  0x0000402a       0x28 c:/program files/microchip/xc32/v1.42/bin/bin/../../lib/gcc/pic32mx/4.8.3/../../../../pic32mx/lib\libpic32.a(default-on-reset.o)
 .debug_abbrev  0x00004052       0x28 c:/program files/microchip/xc32/v1.42/bin/bin/../../lib/gcc/pic32mx/4.8.3/../../../../pic32mx/lib\libpic32.a(default-on-bootstrap.o)
 .debug_abbrev  0x0000407a       0x28 c:/program files/microchip/xc32/v1.42/bin/bin/../../lib/gcc/pic32mx/4.8.3/../../../../pic32mx/lib\libpic32.a(defaultinterrupt.o)
 .debug_abbrev  0x000040a2       0x28 c:/program files/microchip/xc32/v1.42/bin/bin/../../lib/gcc/pic32mx/4.8.3/../../../../pic32mx/lib\libm.a(w_sqrtf.o)
 .debug_abbrev  0x000040ca       0x28 c:/program files/microchip/xc32/v1.42/bin/bin/../../lib/gcc/pic32mx/4.8.3/../../../../pic32mx/lib\libc.a(strchr.o)
 .debug_abbrev  0x000040f2       0x28 c:/program files/microchip/xc32/v1.42/bin/bin/../../lib/gcc/pic32mx/4.8.3/../../../../pic32mx/lib\libc.a(strncpy.o)
 .debug_abbrev  0x0000411a       0x4f c:/program files/microchip/xc32/v1.42/bin/bin/../../lib/gcc/pic32mx/4.8.3/../../../../pic32mx/lib\libc.a(strtof.o)
 .debug_abbrev  0x00004169       0x28 c:/program files/microchip/xc32/v1.42/bin/bin/../../lib/gcc/pic32mx/4.8.3/../../../../pic32mx/lib\libc.a(strtok.o)
 .debug_abbrev  0x00004191       0x28 c:/program files/microchip/xc32/v1.42/bin/bin/../../lib/gcc/pic32mx/4.8.3/../../../../pic32mx/lib\libc.a(strcspn.o)
 .debug_abbrev  0x000041b9       0x28 c:/program files/microchip/xc32/v1.42/bin/bin/../../lib/gcc/pic32mx/4.8.3/../../../../pic32mx/lib\libc.a(strspn.o)
 .debug_abbrev  0x000041e1       0x35 c:/program files/microchip/xc32/v1.42/bin/bin/../../lib/gcc/pic32mx/4.8.3/../../../../pic32mx/lib\libm.a(__strtof.o)
 .debug_abbrev  0x00004216       0x35 c:/program files/microchip/xc32/v1.42/bin/bin/../../lib/gcc/pic32mx/4.8.3/../../../../pic32mx/lib\libe.a(_ldexpf.o)

.debug_line     0x00000000     0xacb3
 *(.debug_line)
 .debug_line    0x00000000       0x9c c:/program files/microchip/xc32/v1.42/bin/bin/../../lib/gcc/pic32mx/4.8.3/../../../../pic32mx/lib\software-debug-break.o
 .debug_line    0x0000009c      0x682 build/default/debug/_ext/977502197/drv_spi_tasks.o
 .debug_line    0x0000071e      0xf17 build/default/debug/_ext/977502197/drv_spi_api.o
 .debug_line    0x00001635      0x5bd build/default/debug/_ext/977502197/drv_spi_master_rm_tasks.o
 .debug_line    0x00001bf2      0x597 build/default/debug/_ext/639803181/sys_clk_static.o
 .debug_line    0x00002189      0x7b9 build/default/debug/_ext/822048611/sys_ports_static.o
 .debug_line    0x00002942      0x543 build/default/debug/_ext/1688732426/insgps16state_v1.o
 .debug_line    0x00002e85      0x769 build/default/debug/_ext/1688732426/system_init.o
 .debug_line    0x000035ee      0x5b8 build/default/debug/_ext/1688732426/system_interrupt.o
 .debug_line    0x00003ba6      0x2bc build/default/debug/_ext/1688732426/system_exceptions.o
 .debug_line    0x00003e62      0x57f build/default/debug/_ext/1688732426/system_tasks.o
 .debug_line    0x000043e1       0xf9 build/default/debug/_ext/1688732426/system_interrupt_a.o
 .debug_line    0x000044da      0x13b build/default/debug/_ext/1688732426/rtos_hooks.o
 .debug_line    0x00004615      0x581 build/default/debug/_ext/1360937237/app.o
 .debug_line    0x00004b96       0xb6 build/default/debug/_ext/1360937237/main.o
 .debug_line    0x00004c4c      0x31b build/default/debug/_ext/1890346972/bsp_sys_init.o
 .debug_line    0x00004f67      0xb48 build/default/debug/_ext/568870469/drv_spi.o
 .debug_line    0x00005aaf      0x4e0 build/default/debug/_ext/465164171/drv_spi_sys_queue_fifo.o
 .debug_line    0x00005f8f     0x155a build/default/debug/_ext/260586732/drv_usart.o
 .debug_line    0x000074e9      0x813 build/default/debug/_ext/260586732/drv_usart_read_write.o
 .debug_line    0x00007cfc      0x2be build/default/debug/_ext/24337685/osal_freertos.o
 .debug_line    0x00007fba      0x637 build/default/debug/_ext/1271179505/sys_devcon.o
 .debug_line    0x000085f1      0x483 build/default/debug/_ext/1271179505/sys_devcon_pic32mx.o
 .debug_line    0x00008a74      0x392 build/default/debug/_ext/122796885/sys_int_pic32.o
 .debug_line    0x00008e06      0x213 build/default/debug/_ext/1856876499/heap_1.o
 .debug_line    0x00009019      0x234 build/default/debug/_ext/12131622/port.o
 .debug_line    0x0000924d      0x102 build/default/debug/_ext/12131622/port_asm.o
 .debug_line    0x0000934f       0x1d build/default/debug/_ext/1128951024/croutine.o
 .debug_line    0x0000936c      0x1df build/default/debug/_ext/1128951024/list.o
 .debug_line    0x0000954b      0x483 build/default/debug/_ext/1128951024/queue.o
 .debug_line    0x000099ce      0x861 build/default/debug/_ext/1128951024/tasks.o
 .debug_line    0x0000a22f       0x1d build/default/debug/_ext/1128951024/timers.o
 .debug_line    0x0000a24c      0x31e build/default/debug/_ext/1128951024/event_groups.o
 .debug_line    0x0000a56a       0xa9 c:/program files/microchip/xc32/v1.42/bin/bin/../../lib/gcc/pic32mx/4.8.3/../../../../pic32mx/lib\libpic32.a(default-bootstrap-exception-handler.o)
 .debug_line    0x0000a613       0x96 c:/program files/microchip/xc32/v1.42/bin/bin/../../lib/gcc/pic32mx/4.8.3/../../../../pic32mx/lib\libpic32.a(default-on-reset.o)
 .debug_line    0x0000a6a9       0x9a c:/program files/microchip/xc32/v1.42/bin/bin/../../lib/gcc/pic32mx/4.8.3/../../../../pic32mx/lib\libpic32.a(default-on-bootstrap.o)
 .debug_line    0x0000a743       0xa8 c:/program files/microchip/xc32/v1.42/bin/bin/../../lib/gcc/pic32mx/4.8.3/../../../../pic32mx/lib\libpic32.a(defaultinterrupt.o)
 .debug_line    0x0000a7eb       0x8a c:/program files/microchip/xc32/v1.42/bin/bin/../../lib/gcc/pic32mx/4.8.3/../../../../pic32mx/lib\libm.a(w_sqrtf.o)
 .debug_line    0x0000a875        0x0 c:/program files/microchip/xc32/v1.42/bin/bin/../../lib/gcc/pic32mx/4.8.3/../../../../pic32mx/lib\libm.a(s_lib_ver.o)
 .debug_line    0x0000a875        0x0 c:/program files/microchip/xc32/v1.42/bin/bin/../../lib/gcc/pic32mx/4.8.3/../../../../pic32mx/lib\libc.a(errno.o)
 .debug_line    0x0000a875       0x82 c:/program files/microchip/xc32/v1.42/bin/bin/../../lib/gcc/pic32mx/4.8.3/../../../../pic32mx/lib\libc.a(strchr.o)
 .debug_line    0x0000a8f7       0x83 c:/program files/microchip/xc32/v1.42/bin/bin/../../lib/gcc/pic32mx/4.8.3/../../../../pic32mx/lib\libc.a(strncpy.o)
 .debug_line    0x0000a97a       0x82 c:/program files/microchip/xc32/v1.42/bin/bin/../../lib/gcc/pic32mx/4.8.3/../../../../pic32mx/lib\libc.a(strtof.o)
 .debug_line    0x0000a9fc       0x82 c:/program files/microchip/xc32/v1.42/bin/bin/../../lib/gcc/pic32mx/4.8.3/../../../../pic32mx/lib\libc.a(strtok.o)
 .debug_line    0x0000aa7e       0x83 c:/program files/microchip/xc32/v1.42/bin/bin/../../lib/gcc/pic32mx/4.8.3/../../../../pic32mx/lib\libc.a(strcspn.o)
 .debug_line    0x0000ab01       0x82 c:/program files/microchip/xc32/v1.42/bin/bin/../../lib/gcc/pic32mx/4.8.3/../../../../pic32mx/lib\libc.a(strspn.o)
 .debug_line    0x0000ab83       0x8b c:/program files/microchip/xc32/v1.42/bin/bin/../../lib/gcc/pic32mx/4.8.3/../../../../pic32mx/lib\libm.a(__strtof.o)
 .debug_line    0x0000ac0e       0xa5 c:/program files/microchip/xc32/v1.42/bin/bin/../../lib/gcc/pic32mx/4.8.3/../../../../pic32mx/lib\libe.a(_ldexpf.o)
 .debug_line    0x0000acb3        0x0 c:/program files/microchip/xc32/v1.42/bin/bin/../../lib/gcc/pic32mx/4.8.3/../../../../pic32mx/lib\libc.a(ctype.o)

.debug_frame    0x00000000     0x1e98
 *(.debug_frame)
 .debug_frame   0x00000000       0x20 c:/program files/microchip/xc32/v1.42/bin/bin/../../lib/gcc/pic32mx/4.8.3/../../../../pic32mx/lib\software-debug-break.o
 .debug_frame   0x00000020       0x38 build/default/debug/_ext/977502197/drv_spi_tasks.o
 .debug_frame   0x00000058       0x3c build/default/debug/_ext/977502197/drv_spi_api.o
 .debug_frame   0x00000094       0x30 build/default/debug/_ext/977502197/drv_spi_master_rm_tasks.o
 .debug_frame   0x000000c4       0xa0 build/default/debug/_ext/639803181/sys_clk_static.o
 .debug_frame   0x00000164      0x1f0 build/default/debug/_ext/822048611/sys_ports_static.o
 .debug_frame   0x00000354      0x2d8 build/default/debug/_ext/1688732426/insgps16state_v1.o
 .debug_frame   0x0000062c       0x30 build/default/debug/_ext/1688732426/system_init.o
 .debug_frame   0x0000065c       0x70 build/default/debug/_ext/1688732426/system_interrupt.o
 .debug_frame   0x000006cc       0x28 build/default/debug/_ext/1688732426/system_exceptions.o
 .debug_frame   0x000006f4       0xb4 build/default/debug/_ext/1688732426/system_tasks.o
 .debug_frame   0x000007a8       0x40 build/default/debug/_ext/1688732426/rtos_hooks.o
 .debug_frame   0x000007e8       0x94 build/default/debug/_ext/1360937237/app.o
 .debug_frame   0x0000087c       0x28 build/default/debug/_ext/1360937237/main.o
 .debug_frame   0x000008a4       0xa0 build/default/debug/_ext/1890346972/bsp_sys_init.o
 .debug_frame   0x00000944      0x1b4 build/default/debug/_ext/568870469/drv_spi.o
 .debug_frame   0x00000af8      0x230 build/default/debug/_ext/465164171/drv_spi_sys_queue_fifo.o
 .debug_frame   0x00000d28      0x26c build/default/debug/_ext/260586732/drv_usart.o
 .debug_frame   0x00000f94       0x58 build/default/debug/_ext/260586732/drv_usart_read_write.o
 .debug_frame   0x00000fec      0x150 build/default/debug/_ext/24337685/osal_freertos.o
 .debug_frame   0x0000113c       0xe8 build/default/debug/_ext/1271179505/sys_devcon.o
 .debug_frame   0x00001224       0x28 build/default/debug/_ext/1271179505/sys_devcon_pic32mx.o
 .debug_frame   0x0000124c       0x90 build/default/debug/_ext/122796885/sys_int_pic32.o
 .debug_frame   0x000012dc       0x5c build/default/debug/_ext/1856876499/heap_1.o
 .debug_frame   0x00001338       0xc0 build/default/debug/_ext/12131622/port.o
 .debug_frame   0x000013f8       0x60 build/default/debug/_ext/1128951024/list.o
 .debug_frame   0x00001458      0x214 build/default/debug/_ext/1128951024/queue.o
 .debug_frame   0x0000166c      0x514 build/default/debug/_ext/1128951024/tasks.o
 .debug_frame   0x00001b80      0x108 build/default/debug/_ext/1128951024/event_groups.o
 .debug_frame   0x00001c88       0x2c c:/program files/microchip/xc32/v1.42/bin/bin/../../lib/gcc/pic32mx/4.8.3/../../../../pic32mx/lib\libpic32.a(default-bootstrap-exception-handler.o)
 .debug_frame   0x00001cb4       0x20 c:/program files/microchip/xc32/v1.42/bin/bin/../../lib/gcc/pic32mx/4.8.3/../../../../pic32mx/lib\libpic32.a(default-on-reset.o)
 .debug_frame   0x00001cd4       0x20 c:/program files/microchip/xc32/v1.42/bin/bin/../../lib/gcc/pic32mx/4.8.3/../../../../pic32mx/lib\libpic32.a(default-on-bootstrap.o)
 .debug_frame   0x00001cf4       0x20 c:/program files/microchip/xc32/v1.42/bin/bin/../../lib/gcc/pic32mx/4.8.3/../../../../pic32mx/lib\libpic32.a(defaultinterrupt.o)
 .debug_frame   0x00001d14       0x28 c:/program files/microchip/xc32/v1.42/bin/bin/../../lib/gcc/pic32mx/4.8.3/../../../../pic32mx/lib\libm.a(w_sqrtf.o)
 .debug_frame   0x00001d3c       0x20 c:/program files/microchip/xc32/v1.42/bin/bin/../../lib/gcc/pic32mx/4.8.3/../../../../pic32mx/lib\libc.a(strchr.o)
 .debug_frame   0x00001d5c       0x20 c:/program files/microchip/xc32/v1.42/bin/bin/../../lib/gcc/pic32mx/4.8.3/../../../../pic32mx/lib\libc.a(strncpy.o)
 .debug_frame   0x00001d7c       0x40 c:/program files/microchip/xc32/v1.42/bin/bin/../../lib/gcc/pic32mx/4.8.3/../../../../pic32mx/lib\libc.a(strtof.o)
 .debug_frame   0x00001dbc       0x2c c:/program files/microchip/xc32/v1.42/bin/bin/../../lib/gcc/pic32mx/4.8.3/../../../../pic32mx/lib\libc.a(strtok.o)
 .debug_frame   0x00001de8       0x2c c:/program files/microchip/xc32/v1.42/bin/bin/../../lib/gcc/pic32mx/4.8.3/../../../../pic32mx/lib\libc.a(strcspn.o)
 .debug_frame   0x00001e14       0x2c c:/program files/microchip/xc32/v1.42/bin/bin/../../lib/gcc/pic32mx/4.8.3/../../../../pic32mx/lib\libc.a(strspn.o)
 .debug_frame   0x00001e40       0x38 c:/program files/microchip/xc32/v1.42/bin/bin/../../lib/gcc/pic32mx/4.8.3/../../../../pic32mx/lib\libm.a(__strtof.o)
 .debug_frame   0x00001e78       0x20 c:/program files/microchip/xc32/v1.42/bin/bin/../../lib/gcc/pic32mx/4.8.3/../../../../pic32mx/lib\libe.a(_ldexpf.o)

.debug_str      0x00000000      0xb2f
 *(.debug_str)
 .debug_str     0x00000000        0x0 c:/program files/microchip/xc32/v1.42/bin/bin/../../lib/gcc/pic32mx/4.8.3/../../../../pic32mx/lib\software-debug-break.o
 .debug_str     0x00000000       0x59 build/default/debug/_ext/977502197/drv_spi_tasks.o
 .debug_str     0x00000059       0xc5 build/default/debug/_ext/977502197/drv_spi_api.o
 .debug_str     0x0000011e       0x1e build/default/debug/_ext/977502197/drv_spi_master_rm_tasks.o
 .debug_str     0x0000013c       0x39 build/default/debug/_ext/639803181/sys_clk_static.o
 .debug_str     0x00000175       0x55 build/default/debug/_ext/822048611/sys_ports_static.o
 .debug_str     0x000001ca       0x32 build/default/debug/_ext/1688732426/insgps16state_v1.o
 .debug_str     0x000001fc       0x36 build/default/debug/_ext/1688732426/system_init.o
 .debug_str     0x00000232       0x1f build/default/debug/_ext/1688732426/system_interrupt.o
 .debug_str     0x00000251        0x0 build/default/debug/_ext/1688732426/system_exceptions.o
 .debug_str     0x00000251        0xd build/default/debug/_ext/1688732426/system_tasks.o
 .debug_str     0x0000025e        0x9 build/default/debug/_ext/1688732426/rtos_hooks.o
 .debug_str     0x00000267        0x0 build/default/debug/_ext/1360937237/app.o
 .debug_str     0x00000267        0x0 build/default/debug/_ext/1360937237/main.o
 .debug_str     0x00000267       0x15 build/default/debug/_ext/1890346972/bsp_sys_init.o
 .debug_str     0x0000027c      0x140 build/default/debug/_ext/568870469/drv_spi.o
 .debug_str     0x000003bc      0x11f build/default/debug/_ext/465164171/drv_spi_sys_queue_fifo.o
 .debug_str     0x000004db      0x195 build/default/debug/_ext/260586732/drv_usart.o
 .debug_str     0x00000670       0x46 build/default/debug/_ext/260586732/drv_usart_read_write.o
 .debug_str     0x000006b6       0x40 build/default/debug/_ext/24337685/osal_freertos.o
 .debug_str     0x000006f6       0x16 build/default/debug/_ext/1271179505/sys_devcon.o
 .debug_str     0x0000070c        0x6 build/default/debug/_ext/1271179505/sys_devcon_pic32mx.o
 .debug_str     0x00000712       0x2d build/default/debug/_ext/122796885/sys_int_pic32.o
 .debug_str     0x0000073f       0x1d build/default/debug/_ext/1856876499/heap_1.o
 .debug_str     0x0000075c       0x37 build/default/debug/_ext/12131622/port.o
 .debug_str     0x00000793        0x0 build/default/debug/_ext/1128951024/croutine.o
 .debug_str     0x00000793       0x2b build/default/debug/_ext/1128951024/list.o
 .debug_str     0x000007be       0xf1 build/default/debug/_ext/1128951024/queue.o
 .debug_str     0x000008af      0x191 build/default/debug/_ext/1128951024/tasks.o
 .debug_str     0x00000a40        0x0 build/default/debug/_ext/1128951024/timers.o
 .debug_str     0x00000a40       0xe6 build/default/debug/_ext/1128951024/event_groups.o
 .debug_str     0x00000b26        0x0 c:/program files/microchip/xc32/v1.42/bin/bin/../../lib/gcc/pic32mx/4.8.3/../../../../pic32mx/lib\libpic32.a(default-bootstrap-exception-handler.o)
 .debug_str     0x00000b26        0x0 c:/program files/microchip/xc32/v1.42/bin/bin/../../lib/gcc/pic32mx/4.8.3/../../../../pic32mx/lib\libpic32.a(default-on-reset.o)
 .debug_str     0x00000b26        0x0 c:/program files/microchip/xc32/v1.42/bin/bin/../../lib/gcc/pic32mx/4.8.3/../../../../pic32mx/lib\libpic32.a(default-on-bootstrap.o)
 .debug_str     0x00000b26        0x0 c:/program files/microchip/xc32/v1.42/bin/bin/../../lib/gcc/pic32mx/4.8.3/../../../../pic32mx/lib\libpic32.a(defaultinterrupt.o)
 .debug_str     0x00000b26        0x0 c:/program files/microchip/xc32/v1.42/bin/bin/../../lib/gcc/pic32mx/4.8.3/../../../../pic32mx/lib\libm.a(w_sqrtf.o)
 .debug_str     0x00000b26        0x0 c:/program files/microchip/xc32/v1.42/bin/bin/../../lib/gcc/pic32mx/4.8.3/../../../../pic32mx/lib\libm.a(s_lib_ver.o)
 .debug_str     0x00000b26        0x0 c:/program files/microchip/xc32/v1.42/bin/bin/../../lib/gcc/pic32mx/4.8.3/../../../../pic32mx/lib\libc.a(errno.o)
 .debug_str     0x00000b26        0x0 c:/program files/microchip/xc32/v1.42/bin/bin/../../lib/gcc/pic32mx/4.8.3/../../../../pic32mx/lib\libc.a(strchr.o)
 .debug_str     0x00000b26        0x0 c:/program files/microchip/xc32/v1.42/bin/bin/../../lib/gcc/pic32mx/4.8.3/../../../../pic32mx/lib\libc.a(strncpy.o)
 .debug_str     0x00000b26        0x9 c:/program files/microchip/xc32/v1.42/bin/bin/../../lib/gcc/pic32mx/4.8.3/../../../../pic32mx/lib\libc.a(strtof.o)
 .debug_str     0x00000b2f        0x0 c:/program files/microchip/xc32/v1.42/bin/bin/../../lib/gcc/pic32mx/4.8.3/../../../../pic32mx/lib\libc.a(strtok.o)
 .debug_str     0x00000b2f        0x0 c:/program files/microchip/xc32/v1.42/bin/bin/../../lib/gcc/pic32mx/4.8.3/../../../../pic32mx/lib\libc.a(strcspn.o)
 .debug_str     0x00000b2f        0x0 c:/program files/microchip/xc32/v1.42/bin/bin/../../lib/gcc/pic32mx/4.8.3/../../../../pic32mx/lib\libc.a(strspn.o)
 .debug_str     0x00000b2f        0x0 c:/program files/microchip/xc32/v1.42/bin/bin/../../lib/gcc/pic32mx/4.8.3/../../../../pic32mx/lib\libm.a(__strtof.o)
 .debug_str     0x00000b2f        0x0 c:/program files/microchip/xc32/v1.42/bin/bin/../../lib/gcc/pic32mx/4.8.3/../../../../pic32mx/lib\libe.a(_ldexpf.o)
 .debug_str     0x00000b2f        0x0 c:/program files/microchip/xc32/v1.42/bin/bin/../../lib/gcc/pic32mx/4.8.3/../../../../pic32mx/lib\libc.a(ctype.o)

.debug_loc      0x00000000    0x12bcf
 *(.debug_loc)
 .debug_loc     0x00000000      0x913 build/default/debug/_ext/977502197/drv_spi_tasks.o
 .debug_loc     0x00000913     0x27e7 build/default/debug/_ext/977502197/drv_spi_api.o
 .debug_loc     0x000030fa      0x655 build/default/debug/_ext/977502197/drv_spi_master_rm_tasks.o
 .debug_loc     0x0000374f       0xc1 build/default/debug/_ext/639803181/sys_clk_static.o
 .debug_loc     0x00003810      0xecf build/default/debug/_ext/822048611/sys_ports_static.o
 .debug_loc     0x000046df     0x1082 build/default/debug/_ext/1688732426/insgps16state_v1.o
 .debug_loc     0x00005761       0x41 build/default/debug/_ext/1688732426/system_init.o
 .debug_loc     0x000057a2       0xc8 build/default/debug/_ext/1688732426/system_interrupt.o
 .debug_loc     0x0000586a       0x20 build/default/debug/_ext/1688732426/system_exceptions.o
 .debug_loc     0x0000588a      0x22d build/default/debug/_ext/1688732426/system_tasks.o
 .debug_loc     0x00005ab7       0x74 build/default/debug/_ext/1688732426/rtos_hooks.o
 .debug_loc     0x00005b2b      0x165 build/default/debug/_ext/1360937237/app.o
 .debug_loc     0x00005c90       0x20 build/default/debug/_ext/1360937237/main.o
 .debug_loc     0x00005cb0      0x11b build/default/debug/_ext/1890346972/bsp_sys_init.o
 .debug_loc     0x00005dcb     0x1d12 build/default/debug/_ext/568870469/drv_spi.o
 .debug_loc     0x00007add      0xc59 build/default/debug/_ext/465164171/drv_spi_sys_queue_fifo.o
 .debug_loc     0x00008736     0x57b2 build/default/debug/_ext/260586732/drv_usart.o
 .debug_loc     0x0000dee8      0xe49 build/default/debug/_ext/260586732/drv_usart_read_write.o
 .debug_loc     0x0000ed31      0x58c build/default/debug/_ext/24337685/osal_freertos.o
 .debug_loc     0x0000f2bd      0x150 build/default/debug/_ext/1271179505/sys_devcon.o
 .debug_loc     0x0000f40d      0x10c build/default/debug/_ext/1271179505/sys_devcon_pic32mx.o
 .debug_loc     0x0000f519      0x10d build/default/debug/_ext/122796885/sys_int_pic32.o
 .debug_loc     0x0000f626       0x69 build/default/debug/_ext/1856876499/heap_1.o
 .debug_loc     0x0000f68f      0x1aa build/default/debug/_ext/12131622/port.o
 .debug_loc     0x0000f839       0x31 build/default/debug/_ext/1128951024/list.o
 .debug_loc     0x0000f86a      0xe9c build/default/debug/_ext/1128951024/queue.o
 .debug_loc     0x00010706     0x1abf build/default/debug/_ext/1128951024/tasks.o
 .debug_loc     0x000121c5      0xa0a build/default/debug/_ext/1128951024/event_groups.o

.debug_macinfo
 *(.debug_macinfo)

.debug_weaknames
 *(.debug_weaknames)

.debug_funcnames
 *(.debug_funcnames)

.debug_typenames
 *(.debug_typenames)

.debug_varnames
 *(.debug_varnames)

.debug_pubtypes
 *(.debug_pubtypes)

.debug_ranges   0x00000000     0x2a88
 *(.debug_ranges)
 .debug_ranges  0x00000000       0x10 c:/program files/microchip/xc32/v1.42/bin/bin/../../lib/gcc/pic32mx/4.8.3/../../../../pic32mx/lib\software-debug-break.o
 .debug_ranges  0x00000010      0x138 build/default/debug/_ext/977502197/drv_spi_tasks.o
 .debug_ranges  0x00000148      0x8e8 build/default/debug/_ext/977502197/drv_spi_api.o
 .debug_ranges  0x00000a30      0x138 build/default/debug/_ext/977502197/drv_spi_master_rm_tasks.o
 .debug_ranges  0x00000b68       0x40 build/default/debug/_ext/639803181/sys_clk_static.o
 .debug_ranges  0x00000ba8       0xf8 build/default/debug/_ext/822048611/sys_ports_static.o
 .debug_ranges  0x00000ca0       0xe0 build/default/debug/_ext/1688732426/insgps16state_v1.o
 .debug_ranges  0x00000d80       0x10 build/default/debug/_ext/1688732426/system_init.o
 .debug_ranges  0x00000d90       0x28 build/default/debug/_ext/1688732426/system_interrupt.o
 .debug_ranges  0x00000db8       0x10 build/default/debug/_ext/1688732426/system_exceptions.o
 .debug_ranges  0x00000dc8       0x38 build/default/debug/_ext/1688732426/system_tasks.o
 .debug_ranges  0x00000e00       0x50 build/default/debug/_ext/1688732426/system_interrupt_a.o
 .debug_ranges  0x00000e50       0x18 build/default/debug/_ext/1688732426/rtos_hooks.o
 .debug_ranges  0x00000e68       0x38 build/default/debug/_ext/1360937237/app.o
 .debug_ranges  0x00000ea0       0x10 build/default/debug/_ext/1360937237/main.o
 .debug_ranges  0x00000eb0       0x50 build/default/debug/_ext/1890346972/bsp_sys_init.o
 .debug_ranges  0x00000f00      0x268 build/default/debug/_ext/568870469/drv_spi.o
 .debug_ranges  0x00001168       0xc8 build/default/debug/_ext/465164171/drv_spi_sys_queue_fifo.o
 .debug_ranges  0x00001230      0xee0 build/default/debug/_ext/260586732/drv_usart.o
 .debug_ranges  0x00002110      0x3d0 build/default/debug/_ext/260586732/drv_usart_read_write.o
 .debug_ranges  0x000024e0       0x78 build/default/debug/_ext/24337685/osal_freertos.o
 .debug_ranges  0x00002558       0x68 build/default/debug/_ext/1271179505/sys_devcon.o
 .debug_ranges  0x000025c0       0x10 build/default/debug/_ext/1271179505/sys_devcon_pic32mx.o
 .debug_ranges  0x000025d0       0x50 build/default/debug/_ext/122796885/sys_int_pic32.o
 .debug_ranges  0x00002620       0x28 build/default/debug/_ext/1856876499/heap_1.o
 .debug_ranges  0x00002648       0x48 build/default/debug/_ext/12131622/port.o
 .debug_ranges  0x00002690       0x30 build/default/debug/_ext/1128951024/list.o
 .debug_ranges  0x000026c0       0xa0 build/default/debug/_ext/1128951024/queue.o
 .debug_ranges  0x00002760      0x1b8 build/default/debug/_ext/1128951024/tasks.o
 .debug_ranges  0x00002918       0x98 build/default/debug/_ext/1128951024/event_groups.o
 .debug_ranges  0x000029b0       0x10 c:/program files/microchip/xc32/v1.42/bin/bin/../../lib/gcc/pic32mx/4.8.3/../../../../pic32mx/lib\libpic32.a(default-bootstrap-exception-handler.o)
 .debug_ranges  0x000029c0       0x10 c:/program files/microchip/xc32/v1.42/bin/bin/../../lib/gcc/pic32mx/4.8.3/../../../../pic32mx/lib\libpic32.a(default-on-reset.o)
 .debug_ranges  0x000029d0       0x10 c:/program files/microchip/xc32/v1.42/bin/bin/../../lib/gcc/pic32mx/4.8.3/../../../../pic32mx/lib\libpic32.a(default-on-bootstrap.o)
 .debug_ranges  0x000029e0       0x10 c:/program files/microchip/xc32/v1.42/bin/bin/../../lib/gcc/pic32mx/4.8.3/../../../../pic32mx/lib\libpic32.a(defaultinterrupt.o)
 .debug_ranges  0x000029f0       0x10 c:/program files/microchip/xc32/v1.42/bin/bin/../../lib/gcc/pic32mx/4.8.3/../../../../pic32mx/lib\libm.a(w_sqrtf.o)
 .debug_ranges  0x00002a00       0x10 c:/program files/microchip/xc32/v1.42/bin/bin/../../lib/gcc/pic32mx/4.8.3/../../../../pic32mx/lib\libc.a(strchr.o)
 .debug_ranges  0x00002a10       0x10 c:/program files/microchip/xc32/v1.42/bin/bin/../../lib/gcc/pic32mx/4.8.3/../../../../pic32mx/lib\libc.a(strncpy.o)
 .debug_ranges  0x00002a20       0x18 c:/program files/microchip/xc32/v1.42/bin/bin/../../lib/gcc/pic32mx/4.8.3/../../../../pic32mx/lib\libc.a(strtof.o)
 .debug_ranges  0x00002a38       0x10 c:/program files/microchip/xc32/v1.42/bin/bin/../../lib/gcc/pic32mx/4.8.3/../../../../pic32mx/lib\libc.a(strtok.o)
 .debug_ranges  0x00002a48       0x10 c:/program files/microchip/xc32/v1.42/bin/bin/../../lib/gcc/pic32mx/4.8.3/../../../../pic32mx/lib\libc.a(strcspn.o)
 .debug_ranges  0x00002a58       0x10 c:/program files/microchip/xc32/v1.42/bin/bin/../../lib/gcc/pic32mx/4.8.3/../../../../pic32mx/lib\libc.a(strspn.o)
 .debug_ranges  0x00002a68       0x10 c:/program files/microchip/xc32/v1.42/bin/bin/../../lib/gcc/pic32mx/4.8.3/../../../../pic32mx/lib\libm.a(__strtof.o)
 .debug_ranges  0x00002a78       0x10 c:/program files/microchip/xc32/v1.42/bin/bin/../../lib/gcc/pic32mx/4.8.3/../../../../pic32mx/lib\libe.a(_ldexpf.o)

.gnu.attributes
                0x00000000       0x10
 *(.gnu.attributes)
 .gnu.attributes
                0x00000000       0x10 c:/program files/microchip/xc32/v1.42/bin/bin/../../lib/gcc/pic32mx/4.8.3/../../../../pic32mx/lib\software-debug-break.o
 .gnu.attributes
                0x00000010       0x10 build/default/debug/_ext/977502197/drv_spi_tasks.o
 .gnu.attributes
                0x00000020       0x10 build/default/debug/_ext/977502197/drv_spi_api.o
 .gnu.attributes
                0x00000030       0x10 build/default/debug/_ext/977502197/drv_spi_master_rm_tasks.o
 .gnu.attributes
                0x00000040       0x10 build/default/debug/_ext/639803181/sys_clk_static.o
 .gnu.attributes
                0x00000050       0x10 build/default/debug/_ext/822048611/sys_ports_static.o
 .gnu.attributes
                0x00000060       0x10 build/default/debug/_ext/1688732426/insgps16state_v1.o
 .gnu.attributes
                0x00000070       0x10 build/default/debug/_ext/1688732426/system_init.o
 .gnu.attributes
                0x00000080       0x10 build/default/debug/_ext/1688732426/system_interrupt.o
 .gnu.attributes
                0x00000090       0x10 build/default/debug/_ext/1688732426/system_exceptions.o
 .gnu.attributes
                0x000000a0       0x10 build/default/debug/_ext/1688732426/system_tasks.o
 .gnu.attributes
                0x000000b0       0x10 build/default/debug/_ext/1688732426/rtos_hooks.o
 .gnu.attributes
                0x000000c0       0x10 build/default/debug/_ext/1360937237/app.o
 .gnu.attributes
                0x000000d0       0x10 build/default/debug/_ext/1360937237/main.o
 .gnu.attributes
                0x000000e0       0x10 build/default/debug/_ext/1890346972/bsp_sys_init.o
 .gnu.attributes
                0x000000f0       0x10 build/default/debug/_ext/568870469/drv_spi.o
 .gnu.attributes
                0x00000100       0x10 build/default/debug/_ext/465164171/drv_spi_sys_queue_fifo.o
 .gnu.attributes
                0x00000110       0x10 build/default/debug/_ext/260586732/drv_usart.o
 .gnu.attributes
                0x00000120       0x10 build/default/debug/_ext/260586732/drv_usart_read_write.o
 .gnu.attributes
                0x00000130       0x10 build/default/debug/_ext/24337685/osal_freertos.o
 .gnu.attributes
                0x00000140       0x10 build/default/debug/_ext/1271179505/sys_devcon.o
 .gnu.attributes
                0x00000150       0x10 build/default/debug/_ext/1271179505/sys_devcon_pic32mx.o
 .gnu.attributes
                0x00000160       0x10 build/default/debug/_ext/122796885/sys_int_pic32.o
 .gnu.attributes
                0x00000170       0x10 build/default/debug/_ext/1856876499/heap_1.o
 .gnu.attributes
                0x00000180       0x10 build/default/debug/_ext/12131622/port.o
 .gnu.attributes
                0x00000190       0x10 build/default/debug/_ext/1128951024/croutine.o
 .gnu.attributes
                0x000001a0       0x10 build/default/debug/_ext/1128951024/list.o
 .gnu.attributes
                0x000001b0       0x10 build/default/debug/_ext/1128951024/queue.o
 .gnu.attributes
                0x000001c0       0x10 build/default/debug/_ext/1128951024/tasks.o
 .gnu.attributes
                0x000001d0       0x10 build/default/debug/_ext/1128951024/timers.o
 .gnu.attributes
                0x000001e0       0x10 build/default/debug/_ext/1128951024/event_groups.o
 .gnu.attributes
                0x000001f0       0x10 c:/program files/microchip/xc32/v1.42/bin/bin/../../lib/gcc/pic32mx/4.8.3/../../../../pic32mx/lib\libpic32.a(default-bootstrap-exception-handler.o)
 .gnu.attributes
                0x00000200       0x10 c:/program files/microchip/xc32/v1.42/bin/bin/../../lib/gcc/pic32mx/4.8.3/../../../../pic32mx/lib\libpic32.a(default-on-reset.o)
 .gnu.attributes
                0x00000210       0x10 c:/program files/microchip/xc32/v1.42/bin/bin/../../lib/gcc/pic32mx/4.8.3/../../../../pic32mx/lib\libpic32.a(default-on-bootstrap.o)
 .gnu.attributes
                0x00000220       0x10 c:/program files/microchip/xc32/v1.42/bin/bin/../../lib/gcc/pic32mx/4.8.3/../../../../pic32mx/lib\libpic32.a(defaultinterrupt.o)
 .gnu.attributes
                0x00000230       0x10 c:/program files/microchip/xc32/v1.42/bin/bin/../../lib/gcc/pic32mx/4.8.3/../../../../pic32mx/lib\libm.a(w_sqrtf.o)
 .gnu.attributes
                0x00000240       0x10 c:/program files/microchip/xc32/v1.42/bin/bin/../../lib/gcc/pic32mx/4.8.3/../../../../pic32mx/lib\libm.a(s_lib_ver.o)
 .gnu.attributes
                0x00000250       0x10 c:/program files/microchip/xc32/v1.42/bin/bin/../../lib/gcc/pic32mx/4.8.3/../../../../pic32mx/lib\libc.a(errno.o)
 .gnu.attributes
                0x00000260       0x10 c:/program files/microchip/xc32/v1.42/bin/bin/../../lib/gcc/pic32mx/4.8.3/../../../../pic32mx/lib\libc.a(strchr.o)
 .gnu.attributes
                0x00000270       0x10 c:/program files/microchip/xc32/v1.42/bin/bin/../../lib/gcc/pic32mx/4.8.3/../../../../pic32mx/lib\libc.a(strncpy.o)
 .gnu.attributes
                0x00000280       0x10 c:/program files/microchip/xc32/v1.42/bin/bin/../../lib/gcc/pic32mx/4.8.3/../../../../pic32mx/lib\libc.a(strtof.o)
 .gnu.attributes
                0x00000290       0x10 c:/program files/microchip/xc32/v1.42/bin/bin/../../lib/gcc/pic32mx/4.8.3/../../../../pic32mx/lib\libc.a(strtok.o)
 .gnu.attributes
                0x000002a0       0x10 c:/program files/microchip/xc32/v1.42/bin/bin/../../lib/gcc/pic32mx/4.8.3/../../../../pic32mx/lib\libc.a(strcspn.o)
 .gnu.attributes
                0x000002b0       0x10 c:/program files/microchip/xc32/v1.42/bin/bin/../../lib/gcc/pic32mx/4.8.3/../../../../pic32mx/lib\libc.a(strspn.o)
 .gnu.attributes
                0x000002c0       0x10 c:/program files/microchip/xc32/v1.42/bin/bin/../../lib/gcc/pic32mx/4.8.3/../../../../pic32mx/lib\libm.a(__strtof.o)
 .gnu.attributes
                0x000002d0       0x10 c:/program files/microchip/xc32/v1.42/bin/bin/../../lib/gcc/pic32mx/4.8.3/../../../../pic32mx/lib\libe.a(_ldexpf.o)
 .gnu.attributes
                0x000002e0       0x10 c:/program files/microchip/xc32/v1.42/bin/bin/../../lib/gcc/pic32mx/4.8.3/../../../../pic32mx/lib\libc.a(ctype.o)
LOAD c:/program files/microchip/xc32/v1.42/bin/bin/../../lib/gcc/pic32mx/4.8.3\libgcc.a
START GROUP
LOAD c:/program files/microchip/xc32/v1.42/bin/bin/../../lib/gcc/pic32mx/4.8.3/../../../../pic32mx/lib\libpic32.a
LOAD c:/program files/microchip/xc32/v1.42/bin/bin/../../lib/gcc/pic32mx/4.8.3/../../../../pic32mx/lib\libdebug.a
LOAD c:/program files/microchip/xc32/v1.42/bin/bin/../../lib/gcc/pic32mx/4.8.3/../../../../pic32mx/lib\libpic32.a
LOAD c:/program files/microchip/xc32/v1.42/bin/bin/../../lib/gcc/pic32mx/4.8.3/../../../../pic32mx/lib\libm.a
LOAD c:/program files/microchip/xc32/v1.42/bin/bin/../../lib/gcc/pic32mx/4.8.3/../../../../pic32mx/lib\libe.a
LOAD c:/program files/microchip/xc32/v1.42/bin/bin/../../lib/gcc/pic32mx/4.8.3/../../../../pic32mx/lib\libdsp.a
LOAD c:/program files/microchip/xc32/v1.42/bin/bin/../../lib/gcc/pic32mx/4.8.3\libgcc.a
LOAD c:/program files/microchip/xc32/v1.42/bin/bin/../../lib/gcc/pic32mx/4.8.3/../../../../pic32mx/lib\libc.a
LOAD c:/program files/microchip/xc32/v1.42/bin/bin/../../lib/gcc/pic32mx/4.8.3/../../../../pic32mx/lib\libc.a
LOAD c:/program files/microchip/xc32/v1.42/bin/bin/../../lib/gcc/pic32mx/4.8.3/../../../../pic32mx/lib\libpic32.a
END GROUP
LOAD c:/program files/microchip/xc32/v1.42/bin/bin/../../lib/gcc/pic32mx/4.8.3\libgcc.a
OUTPUT(dist/default/debug/myApp5.X.debug.elf elf32-tradlittlemips)
LOAD stack
LOAD data_init

.reginfo        0x00000000       0x18
 .reginfo       0x00000000       0x18 c:/program files/microchip/xc32/v1.42/bin/bin/../../lib/gcc/pic32mx/4.8.3/../../../../pic32mx/lib/./proc/32MX795F512L/crt0_mips32r2.o

.stack          0xa0004598      0x400
 .stack         0xa0004598      0x400 stack

.bss            0xa0001530     0x2f8c
 .bss           0xa0001530     0x2800 build/default/debug/_ext/1856876499/heap_1.o
 .bss           0xa0003d30      0x640 build/default/debug/_ext/12131622/port.o
                0xa0003d30                xISRStack
 .bss           0xa0004370      0x14c build/default/debug/_ext/568870469/drv_spi.o

.data           0xa00044bc       0xb4
 .data          0xa00044bc       0x78 build/default/debug/_ext/1688732426/system_init.o
                0xa00044bc                drvSpi0InitData
 .data          0xa0004534       0x30 build/default/debug/_ext/568870469/drv_spi.o
 .data          0xa0004564        0xc build/default/debug/_ext/1360937237/app.o
                0xa0004564                SPI_cfgObj

.data.math_errhandling_flag
                0xa0004570        0x4
 .data.math_errhandling_flag
                0xa0004570        0x4 c:/program files/microchip/xc32/v1.42/bin/bin/../../lib/gcc/pic32mx/4.8.3/../../../../pic32mx/lib\libm.a(s_lib_ver.o)
                0xa0004570                math_errhandling

.bss.errno      0xa0004574        0x4
 .bss.errno     0xa0004574        0x4 c:/program files/microchip/xc32/v1.42/bin/bin/../../lib/gcc/pic32mx/4.8.3/../../../../pic32mx/lib\libc.a(errno.o)
                0xa0004574                errno

.bss            0xa0004578        0x4
 .bss           0xa0004578        0x4 c:/program files/microchip/xc32/v1.42/bin/bin/../../lib/gcc/pic32mx/4.8.3/../../../../pic32mx/lib\libc.a(strtok.o)

.text.DRV_SPI_SetupHardware
                0x9d000000     0x1598
 .text.DRV_SPI_SetupHardware
                0x9d000000     0x1598 build/default/debug/_ext/977502197/drv_spi_api.o
                0x9d000000                DRV_SPI_SetupHardware

.text._DRV_USART_HardwareSetup
                0x9d001598     0x1138
 .text._DRV_USART_HardwareSetup
                0x9d001598     0x1138 build/default/debug/_ext/260586732/drv_usart.o
                0x9d001598                _DRV_USART_HardwareSetup

.text.LinearizeFG
                0x9d0026d0      0x6cc
 .text.LinearizeFG
                0x9d0026d0      0x6cc build/default/debug/_ext/1688732426/insgps16state_v1.o
                0x9d0026d0                LinearizeFG

.text.DRV_SPI_ISRMasterRM8BitTasks
                0x9d002d9c      0x548
 .text.DRV_SPI_ISRMasterRM8BitTasks
                0x9d002d9c      0x548 build/default/debug/_ext/977502197/drv_spi_tasks.o
                0x9d002d9c                DRV_SPI_ISRMasterRM8BitTasks

.text._DRV_USART_BufferQueueTxTasks
                0x9d0032e4      0x52c
 .text._DRV_USART_BufferQueueTxTasks
                0x9d0032e4      0x52c build/default/debug/_ext/260586732/drv_usart.o
                0x9d0032e4                _DRV_USART_BufferQueueTxTasks

.text.StateEq   0x9d003810      0x4e4
 .text.StateEq  0x9d003810      0x4e4 build/default/debug/_ext/1688732426/insgps16state_v1.o
                0x9d003810                StateEq

.text.APP_Tasks
                0x9d003cf4      0x4d4
 .text.APP_Tasks
                0x9d003cf4      0x4d4 build/default/debug/_ext/1360937237/app.o
                0x9d003cf4                APP_Tasks

.text.LinearizeH
                0x9d0041c8      0x498
 .text.LinearizeH
                0x9d0041c8      0x498 build/default/debug/_ext/1688732426/insgps16state_v1.o
                0x9d0041c8                LinearizeH

.text           0x9d004660      0x454
 .text          0x9d004660      0x454 build/default/debug/_ext/12131622/port_asm.o
                0x9d004660                vPortTickInterruptHandler
                0x9d00480c                vPortStartFirstTask
                0x9d0048d4                vPortYieldISR

.text.DRV_SPI_Open
                0x9d004ab4      0x428
 .text.DRV_SPI_Open
                0x9d004ab4      0x428 build/default/debug/_ext/568870469/drv_spi.o
                0x9d004ab4                DRV_SPI_Open

.text.DRV_USART_Read
                0x9d004edc      0x3a4
 .text.DRV_USART_Read
                0x9d004edc      0x3a4 build/default/debug/_ext/260586732/drv_usart_read_write.o
                0x9d004edc                DRV_USART_Read

.text.DRV_USART_Initialize
                0x9d005280      0x380
 .text.DRV_USART_Initialize
                0x9d005280      0x380 build/default/debug/_ext/260586732/drv_usart.o
                0x9d005280                DRV_USART_Initialize

.text.__strtof  0x9d005600      0x358
 .text.__strtof
                0x9d005600      0x358 c:/program files/microchip/xc32/v1.42/bin/bin/../../lib/gcc/pic32mx/4.8.3/../../../../pic32mx/lib\libm.a(__strtof.o)
                0x9d005600                __strtof

.text.MeasurementEq
                0x9d005958      0x324
 .text.MeasurementEq
                0x9d005958      0x324 build/default/debug/_ext/1688732426/insgps16state_v1.o
                0x9d005958                MeasurementEq

.text.SerialUpdate
                0x9d005c7c      0x2b8
 .text.SerialUpdate
                0x9d005c7c      0x2b8 build/default/debug/_ext/1688732426/insgps16state_v1.o
                0x9d005c7c                SerialUpdate

.text.CovariancePrediction
                0x9d005f34      0x2b8
 .text.CovariancePrediction
                0x9d005f34      0x2b8 build/default/debug/_ext/1688732426/insgps16state_v1.o
                0x9d005f34                CovariancePrediction

.text.INSCorrection
                0x9d0061ec      0x2b4
 .text.INSCorrection
                0x9d0061ec      0x2b4 build/default/debug/_ext/1688732426/insgps16state_v1.o
                0x9d0061ec                INSCorrection

.text.nRF24L01p_PowerUp
                0x9d0064a0      0x2a0
 .text.nRF24L01p_PowerUp
                0x9d0064a0      0x2a0 build/default/debug/_ext/1360937237/app.o
                0x9d0064a0                nRF24L01p_PowerUp

.text.DRV_SPI_Initialize
                0x9d006740      0x278
 .text.DRV_SPI_Initialize
                0x9d006740      0x278 build/default/debug/_ext/568870469/drv_spi.o
                0x9d006740                DRV_SPI_Initialize

.text._DRV_USART_BufferQueueRxTasks
                0x9d0069b8      0x278
 .text._DRV_USART_BufferQueueRxTasks
                0x9d0069b8      0x278 build/default/debug/_ext/260586732/drv_usart.o
                0x9d0069b8                _DRV_USART_BufferQueueRxTasks

.text.fpsubadd  0x9d006c30      0x278
 .text.fpsubadd
                0x9d006c30      0x278 c:/program files/microchip/xc32/v1.42/bin/bin/../../lib/gcc/pic32mx/4.8.3/../../../../pic32mx/lib\libm.a(fp32subadd.o)
                0x9d006c30                __subsf3
                0x9d006c30                fpsub
                0x9d006c38                __addsf3
                0x9d006c38                fpadd

.text.INSStatePrediction
                0x9d006ea8      0x25c
 .text.INSStatePrediction
                0x9d006ea8      0x25c build/default/debug/_ext/1688732426/insgps16state_v1.o
                0x9d006ea8                INSStatePrediction

.text.xQueueGenericReceive
                0x9d007104      0x24c
 .text.xQueueGenericReceive
                0x9d007104      0x24c build/default/debug/_ext/1128951024/queue.o
                0x9d007104                xQueueGenericReceive

.text.RungeKutta
                0x9d007350      0x244
 .text.RungeKutta
                0x9d007350      0x244 build/default/debug/_ext/1688732426/insgps16state_v1.o
                0x9d007350                RungeKutta

.text.fp32div   0x9d007594      0x230
 .text.fp32div  0x9d007594      0x230 c:/program files/microchip/xc32/v1.42/bin/bin/../../lib/gcc/pic32mx/4.8.3/../../../../pic32mx/lib\libm.a(fp32div.o)
                0x9d007594                fpdiv
                0x9d007594                __divsf3

.text.DRV_SPI_ClientConfigure
                0x9d0077c4      0x22c
 .text.DRV_SPI_ClientConfigure
                0x9d0077c4      0x22c build/default/debug/_ext/568870469/drv_spi.o
                0x9d0077c4                DRV_SPI_ClientConfigure

.text.DRV_SPI_ISRErrorTasks
                0x9d0079f0      0x21c
 .text.DRV_SPI_ISRErrorTasks
                0x9d0079f0      0x21c build/default/debug/_ext/568870469/drv_spi.o
                0x9d0079f0                DRV_SPI_ISRErrorTasks

.text.vTaskNavCorrection
                0x9d007c0c      0x210
 .text.vTaskNavCorrection
                0x9d007c0c      0x210 build/default/debug/_ext/1688732426/system_tasks.o

.text.xQueueGenericSend
                0x9d007e1c      0x208
 .text.xQueueGenericSend
                0x9d007e1c      0x208 build/default/debug/_ext/1128951024/queue.o
                0x9d007e1c                xQueueGenericSend

.text.DRV_USART_TasksError
                0x9d008024      0x1ec
 .text.DRV_USART_TasksError
                0x9d008024      0x1ec build/default/debug/_ext/260586732/drv_usart.o
                0x9d008024                DRV_USART_TasksError

.text.DRV_SPI_SYS_QUEUE_Initialize
                0x9d008210      0x1dc
 .text.DRV_SPI_SYS_QUEUE_Initialize
                0x9d008210      0x1dc build/default/debug/_ext/465164171/drv_spi_sys_queue_fifo.o
                0x9d008210                DRV_SPI_SYS_QUEUE_Initialize

.text.xTaskGenericCreate
                0x9d0083ec      0x1c0
 .text.xTaskGenericCreate
                0x9d0083ec      0x1c0 build/default/debug/_ext/1128951024/tasks.o
                0x9d0083ec                xTaskGenericCreate

.dinit          0x9d0085ac      0x1c0
 .dinit         0x9d0085ac      0x1c0 data_init

.text.fp32mul   0x9d00876c      0x1bc
 .text.fp32mul  0x9d00876c      0x1bc c:/program files/microchip/xc32/v1.42/bin/bin/../../lib/gcc/pic32mx/4.8.3/../../../../pic32mx/lib\libm.a(fp32mul.o)
                0x9d00876c                __mulsf3
                0x9d00876c                fpmul

.ExternalInterruptInstance0_vector_text
                0x9d008928      0x1b4
 .ExternalInterruptInstance0_vector_text
                0x9d008928      0x1b4 build/default/debug/_ext/1688732426/system_interrupt_a.o

.ExternalInterruptInstance1_vector_text
                0x9d008adc      0x1b4
 .ExternalInterruptInstance1_vector_text
                0x9d008adc      0x1b4 build/default/debug/_ext/1688732426/system_interrupt_a.o

.DrvUsartInstance0_vector_text
                0x9d008c90      0x1b4
 .DrvUsartInstance0_vector_text
                0x9d008c90      0x1b4 build/default/debug/_ext/1688732426/system_interrupt_a.o

.SPIInstance0_vector_text
                0x9d008e44      0x1b4
 .SPIInstance0_vector_text
                0x9d008e44      0x1b4 build/default/debug/_ext/1688732426/system_interrupt_a.o

.text.DRV_SPI_MasterRMSend8BitISR
                0x9d008ff8      0x1ac
 .text.DRV_SPI_MasterRMSend8BitISR
                0x9d008ff8      0x1ac build/default/debug/_ext/977502197/drv_spi_master_rm_tasks.o
                0x9d008ff8                DRV_SPI_MasterRMSend8BitISR

.text.DRV_SPI_BufferAddWriteRead2
                0x9d0091a4      0x1ac
 .text.DRV_SPI_BufferAddWriteRead2
                0x9d0091a4      0x1ac build/default/debug/_ext/568870469/drv_spi.o
                0x9d0091a4                DRV_SPI_BufferAddWriteRead2

.text.libm      0x9d009350      0x1ac
 .text.libm     0x9d009350      0x1ac c:/program files/microchip/xc32/v1.42/bin/bin/../../lib/gcc/pic32mx/4.8.3/../../../../pic32mx/lib\libm.a(fpsqrt32.o)
                0x9d009350                __mchp_sqrtf
                0x9d009350                fpsqrt

.text.INSGPSInit
                0x9d0094fc      0x1a4
 .text.INSGPSInit
                0x9d0094fc      0x1a4 build/default/debug/_ext/1688732426/insgps16state_v1.o
                0x9d0094fc                INSGPSInit

.text.xTaskIncrementTick
                0x9d0096a0      0x19c
 .text.xTaskIncrementTick
                0x9d0096a0      0x19c build/default/debug/_ext/1128951024/tasks.o
                0x9d0096a0                xTaskIncrementTick

.text.DRV_USART_Open
                0x9d00983c      0x184
 .text.DRV_USART_Open
                0x9d00983c      0x184 build/default/debug/_ext/260586732/drv_usart.o
                0x9d00983c                DRV_USART_Open

.text.DRV_SPI_MasterRMReceive8BitISR
                0x9d0099c0      0x180
 .text.DRV_SPI_MasterRMReceive8BitISR
                0x9d0099c0      0x180 build/default/debug/_ext/977502197/drv_spi_master_rm_tasks.o
                0x9d0099c0                DRV_SPI_MasterRMReceive8BitISR

.text.SYS_Initialize
                0x9d009b40      0x17c
 .text.SYS_Initialize
                0x9d009b40      0x17c build/default/debug/_ext/1688732426/system_init.o
                0x9d009b40                SYS_Initialize

.text           0x9d009cbc      0x168
 .text          0x9d009cbc      0x168 c:/program files/microchip/xc32/v1.42/bin/bin/../../lib/gcc/pic32mx/4.8.3/../../../../pic32mx/lib\libpic32.a(memcpy.o)
                0x9d009cbc                memcpy

.text.xTaskResumeAll
                0x9d009e24      0x154
 .text.xTaskResumeAll
                0x9d009e24      0x154 build/default/debug/_ext/1128951024/tasks.o
                0x9d009e24                xTaskResumeAll

.text.vTaskPriorityInherit
                0x9d009f78      0x12c
 .text.vTaskPriorityInherit
                0x9d009f78      0x12c build/default/debug/_ext/1128951024/tasks.o
                0x9d009f78                vTaskPriorityInherit

.rodata         0x9d00a0a4      0x128
 .rodata        0x9d00a0a4      0x128 build/default/debug/_ext/1688732426/system_exceptions.o

.text.ulTaskNotifyTake
                0x9d00a1cc      0x128
 .text.ulTaskNotifyTake
                0x9d00a1cc      0x128 build/default/debug/_ext/1128951024/tasks.o
                0x9d00a1cc                ulTaskNotifyTake

.text.vTaskNavPrediction
                0x9d00a2f4      0x110
 .text.vTaskNavPrediction
                0x9d00a2f4      0x110 build/default/debug/_ext/1688732426/system_tasks.o

.text.SYS_Tasks
                0x9d00a404      0x110
 .text.SYS_Tasks
                0x9d00a404      0x110 build/default/debug/_ext/1688732426/system_tasks.o
                0x9d00a404                SYS_Tasks

.text.DRV_SPI_SYS_QUEUE_CreateQueue
                0x9d00a514      0x104
 .text.DRV_SPI_SYS_QUEUE_CreateQueue
                0x9d00a514      0x104 build/default/debug/_ext/465164171/drv_spi_sys_queue_fifo.o
                0x9d00a514                DRV_SPI_SYS_QUEUE_CreateQueue

.text.prvUnlockQueue
                0x9d00a618      0x104
 .text.prvUnlockQueue
                0x9d00a618      0x104 build/default/debug/_ext/1128951024/queue.o

.text.__ldexpf  0x9d00a71c      0x104
 .text.__ldexpf
                0x9d00a71c      0x104 c:/program files/microchip/xc32/v1.42/bin/bin/../../lib/gcc/pic32mx/4.8.3/../../../../pic32mx/lib\libe.a(_ldexpf.o)
                0x9d00a71c                __ldexpf

.rodata         0x9d00a820      0x104
 .rodata        0x9d00a820      0x104 c:/program files/microchip/xc32/v1.42/bin/bin/../../lib/gcc/pic32mx/4.8.3/../../../../pic32mx/lib\libc.a(ctype.o)
                0x9d00a820                _ctype

.text.prvCopyDataToQueue
                0x9d00a924       0xfc
 .text.prvCopyDataToQueue
                0x9d00a924       0xfc build/default/debug/_ext/1128951024/queue.o

.text.libm.fpexsqrt
                0x9d00aa20       0xfc
 .text.libm.fpexsqrt
                0x9d00aa20       0xfc c:/program files/microchip/xc32/v1.42/bin/bin/../../lib/gcc/pic32mx/4.8.3/../../../../pic32mx/lib\libm.a(fpexsqrt32.o)
                0x9d00aa20                fpexsqrt

.text.xTaskPriorityDisinherit
                0x9d00ab1c       0xf8
 .text.xTaskPriorityDisinherit
                0x9d00ab1c       0xf8 build/default/debug/_ext/1128951024/tasks.o
                0x9d00ab1c                xTaskPriorityDisinherit

.text.vTaskNotifyGiveFromISR
                0x9d00ac14       0xf8
 .text.vTaskNotifyGiveFromISR
                0x9d00ac14       0xf8 build/default/debug/_ext/1128951024/tasks.o
                0x9d00ac14                vTaskNotifyGiveFromISR

.text.vTaskSwitchContext
                0x9d00ad0c       0xe0
 .text.vTaskSwitchContext
                0x9d00ad0c       0xe0 build/default/debug/_ext/1128951024/tasks.o
                0x9d00ad0c                vTaskSwitchContext

.text.SYS_DEVCON_PerformanceConfig
                0x9d00adec       0xdc
 .text.SYS_DEVCON_PerformanceConfig
                0x9d00adec       0xdc build/default/debug/_ext/1271179505/sys_devcon_pic32mx.o
                0x9d00adec                SYS_DEVCON_PerformanceConfig

.text.general_exception
                0x9d00aec8       0xdc
 .text.general_exception
                0x9d00aec8       0xdc c:/program files/microchip/xc32/v1.42/bin/bin/../../lib/gcc/pic32mx/4.8.3/../../../../pic32mx/lib\libpic32.a(general-exception.o)
                0x9d00aec8                _general_exception_context

.text.vTaskDelayUntil
                0x9d00afa4       0xd8
 .text.vTaskDelayUntil
                0x9d00afa4       0xd8 build/default/debug/_ext/1128951024/tasks.o
                0x9d00afa4                vTaskDelayUntil

.text.strtok    0x9d00b07c       0xd0
 .text.strtok   0x9d00b07c       0xd0 c:/program files/microchip/xc32/v1.42/bin/bin/../../lib/gcc/pic32mx/4.8.3/../../../../pic32mx/lib\libc.a(strtok.o)
                0x9d00b07c                strtok

.text.xQueueGenericReset
                0x9d00b14c       0xc4
 .text.xQueueGenericReset
                0x9d00b14c       0xc4 build/default/debug/_ext/1128951024/queue.o
                0x9d00b14c                xQueueGenericReset

.text.xQueueGiveFromISR
                0x9d00b210       0xc4
 .text.xQueueGiveFromISR
                0x9d00b210       0xc4 build/default/debug/_ext/1128951024/queue.o
                0x9d00b210                xQueueGiveFromISR

.text.DRV_SPI_SYS_QUEUE_AllocElement
                0x9d00b2d4       0xc0
 .text.DRV_SPI_SYS_QUEUE_AllocElement
                0x9d00b2d4       0xc0 build/default/debug/_ext/465164171/drv_spi_sys_queue_fifo.o
                0x9d00b2d4                DRV_SPI_SYS_QUEUE_AllocElement

.text.xTaskRemoveFromEventList
                0x9d00b394       0xbc
 .text.xTaskRemoveFromEventList
                0x9d00b394       0xbc build/default/debug/_ext/1128951024/tasks.o
                0x9d00b394                xTaskRemoveFromEventList

.text.pvPortMalloc
                0x9d00b450       0xb8
 .text.pvPortMalloc
                0x9d00b450       0xb8 build/default/debug/_ext/1856876499/heap_1.o
                0x9d00b450                pvPortMalloc

.text.prvInitialiseTCBVariables
                0x9d00b508       0xb8
 .text.prvInitialiseTCBVariables
                0x9d00b508       0xb8 build/default/debug/_ext/1128951024/tasks.o
                0x9d00b508                prvInitialiseTCBVariables

.text.DRV_USART_TasksReceive
                0x9d00b5c0       0xac
 .text.DRV_USART_TasksReceive
                0x9d00b5c0       0xac build/default/debug/_ext/260586732/drv_usart.o
                0x9d00b5c0                DRV_USART_TasksReceive

.text.DRV_USART_TasksTransmit
                0x9d00b66c       0xac
 .text.DRV_USART_TasksTransmit
                0x9d00b66c       0xac build/default/debug/_ext/260586732/drv_usart.o
                0x9d00b66c                DRV_USART_TasksTransmit

.text.SYS_PORTS_Initialize
                0x9d00b718       0xa8
 .text.SYS_PORTS_Initialize
                0x9d00b718       0xa8 build/default/debug/_ext/822048611/sys_ports_static.o
                0x9d00b718                SYS_PORTS_Initialize

.text           0x9d00b7c0       0xa8
 .text          0x9d00b7c0       0xa8 c:/program files/microchip/xc32/v1.42/bin/bin/../../lib/gcc/pic32mx/4.8.3/../../../../pic32mx/lib\libpic32.a(memset.o)
                0x9d00b7c0                memset

.text.xTaskCheckForTimeOut
                0x9d00b868       0xa0
 .text.xTaskCheckForTimeOut
                0x9d00b868       0xa0 build/default/debug/_ext/1128951024/tasks.o
                0x9d00b868                xTaskCheckForTimeOut

.text.fpcmp     0x9d00b908       0x9c
 .text.fpcmp    0x9d00b908       0x9c c:/program files/microchip/xc32/v1.42/bin/bin/../../lib/gcc/pic32mx/4.8.3/../../../../pic32mx/lib\libm.a(fpcmp.o)
                0x9d00b908                __eqsf2
                0x9d00b908                __lesf2
                0x9d00b908                __gtsf2
                0x9d00b908                __nesf2
                0x9d00b908                fpcmp
                0x9d00b908                __gesf2
                0x9d00b908                __ltsf2

.text.OSAL_SEM_Create
                0x9d00b9a4       0x94
 .text.OSAL_SEM_Create
                0x9d00b9a4       0x94 build/default/debug/_ext/24337685/osal_freertos.o
                0x9d00b9a4                OSAL_SEM_Create

.text.xQueueGenericCreate
                0x9d00ba38       0x94
 .text.xQueueGenericCreate
                0x9d00ba38       0x94 build/default/debug/_ext/1128951024/queue.o
                0x9d00ba38                xQueueGenericCreate

.text.vTaskPlaceOnEventList
                0x9d00bacc       0x94
 .text.vTaskPlaceOnEventList
                0x9d00bacc       0x94 build/default/debug/_ext/1128951024/tasks.o
                0x9d00bacc                vTaskPlaceOnEventList

.text.prvInitialiseTaskLists
                0x9d00bb60       0x90
 .text.prvInitialiseTaskLists
                0x9d00bb60       0x90 build/default/debug/_ext/1128951024/tasks.o
                0x9d00bb60                prvInitialiseTaskLists

.text.vTaskDelay
                0x9d00bbf0       0x90
 .text.vTaskDelay
                0x9d00bbf0       0x90 build/default/debug/_ext/1128951024/tasks.o
                0x9d00bbf0                vTaskDelay

.text.prvCheckTasksWaitingTermination
                0x9d00bc80       0x90
 .text.prvCheckTasksWaitingTermination
                0x9d00bc80       0x90 build/default/debug/_ext/1128951024/tasks.o
                0x9d00bc80                prvCheckTasksWaitingTermination

.text.prvAllocateTCBAndStack
                0x9d00bd10       0x84
 .text.prvAllocateTCBAndStack
                0x9d00bd10       0x84 build/default/debug/_ext/1128951024/tasks.o
                0x9d00bd10                prvAllocateTCBAndStack

.text.vTaskStartScheduler
                0x9d00bd94       0x84
 .text.vTaskStartScheduler
                0x9d00bd94       0x84 build/default/debug/_ext/1128951024/tasks.o
                0x9d00bd94                vTaskStartScheduler

.text.xQueueCreateMutex
                0x9d00be18       0x80
 .text.xQueueCreateMutex
                0x9d00be18       0x80 build/default/debug/_ext/1128951024/queue.o
                0x9d00be18                xQueueCreateMutex

.text.nRF24L01p_PRX_config
                0x9d00be98       0x7c
 .text.nRF24L01p_PRX_config
                0x9d00be98       0x7c build/default/debug/_ext/1360937237/app.o
                0x9d00be98                nRF24L01p_PRX_config

.text.DRV_SPI_SYS_QUEUE_FreeElement
                0x9d00bf14       0x74
 .text.DRV_SPI_SYS_QUEUE_FreeElement
                0x9d00bf14       0x74 build/default/debug/_ext/465164171/drv_spi_sys_queue_fifo.o
                0x9d00bf14                DRV_SPI_SYS_QUEUE_FreeElement

.text.strncpy   0x9d00bf88       0x74
 .text.strncpy  0x9d00bf88       0x74 c:/program files/microchip/xc32/v1.42/bin/bin/../../lib/gcc/pic32mx/4.8.3/../../../../pic32mx/lib\libc.a(strncpy.o)
                0x9d00bf88                strncpy

.text._DRV_SPI_SYS_QUEUE_LockQueue
                0x9d00bffc       0x70
 .text._DRV_SPI_SYS_QUEUE_LockQueue
                0x9d00bffc       0x70 build/default/debug/_ext/465164171/drv_spi_sys_queue_fifo.o
                0x9d00bffc                _DRV_SPI_SYS_QUEUE_LockQueue

.text.prvAddCurrentTaskToDelayedList
                0x9d00c06c       0x70
 .text.prvAddCurrentTaskToDelayedList
                0x9d00c06c       0x70 build/default/debug/_ext/1128951024/tasks.o
                0x9d00c06c                prvAddCurrentTaskToDelayedList

.text.strcspn   0x9d00c0dc       0x70
 .text.strcspn  0x9d00c0dc       0x70 c:/program files/microchip/xc32/v1.42/bin/bin/../../lib/gcc/pic32mx/4.8.3/../../../../pic32mx/lib\libc.a(strcspn.o)
                0x9d00c0dc                strcspn

.text.strspn    0x9d00c14c       0x70
 .text.strspn   0x9d00c14c       0x70 c:/program files/microchip/xc32/v1.42/bin/bin/../../lib/gcc/pic32mx/4.8.3/../../../../pic32mx/lib\libc.a(strspn.o)
                0x9d00c14c                strspn

.rodata         0x9d00c1bc       0x6c
 .rodata        0x9d00c1bc       0x6c build/default/debug/_ext/1688732426/system_tasks.o

.text._DRV_SPI_SYS_QUEUE_UnlockQueue
                0x9d00c228       0x6c
 .text._DRV_SPI_SYS_QUEUE_UnlockQueue
                0x9d00c228       0x6c build/default/debug/_ext/465164171/drv_spi_sys_queue_fifo.o
                0x9d00c228                _DRV_SPI_SYS_QUEUE_UnlockQueue

.text.vApplicationSetupTickTimerInterrupt
                0x9d00c294       0x6c
 .text.vApplicationSetupTickTimerInterrupt
                0x9d00c294       0x6c build/default/debug/_ext/12131622/port.o
                0x9d00c294                vApplicationSetupTickTimerInterrupt

.text.DRV_SPI_SetVTable
                0x9d00c300       0x68
 .text.DRV_SPI_SetVTable
                0x9d00c300       0x68 build/default/debug/_ext/977502197/drv_spi_api.o
                0x9d00c300                DRV_SPI_SetVTable

.text.APP_SPI_BufferEventHandler
                0x9d00c368       0x68
 .text.APP_SPI_BufferEventHandler
                0x9d00c368       0x68 build/default/debug/_ext/1360937237/app.o
                0x9d00c368                APP_SPI_BufferEventHandler

.text.vTaskExitCritical
                0x9d00c3d0       0x68
 .text.vTaskExitCritical
                0x9d00c3d0       0x68 build/default/debug/_ext/1128951024/tasks.o
                0x9d00c3d0                vTaskExitCritical

.text.sqrtf     0x9d00c438       0x68
 .text.sqrtf    0x9d00c438       0x68 c:/program files/microchip/xc32/v1.42/bin/bin/../../lib/gcc/pic32mx/4.8.3/../../../../pic32mx/lib\libm.a(w_sqrtf.o)
                0x9d00c438                sqrtf

.text.IntHandlerExternalInterruptInstance1
                0x9d00c4a0       0x60
 .text.IntHandlerExternalInterruptInstance1
                0x9d00c4a0       0x60 build/default/debug/_ext/1688732426/system_interrupt.o
                0x9d00c4a0                IntHandlerExternalInterruptInstance1

.text.DRV_SPI_SYS_QUEUE_AllocElementLock
                0x9d00c500       0x60
 .text.DRV_SPI_SYS_QUEUE_AllocElementLock
                0x9d00c500       0x60 build/default/debug/_ext/465164171/drv_spi_sys_queue_fifo.o
                0x9d00c500                DRV_SPI_SYS_QUEUE_AllocElementLock

.text.DRV_SPI_SYS_QUEUE_EnqueueLock
                0x9d00c560       0x60
 .text.DRV_SPI_SYS_QUEUE_EnqueueLock
                0x9d00c560       0x60 build/default/debug/_ext/465164171/drv_spi_sys_queue_fifo.o
                0x9d00c560                DRV_SPI_SYS_QUEUE_EnqueueLock

.text.sitofp    0x9d00c5c0       0x60
 .text.sitofp   0x9d00c5c0       0x60 c:/program files/microchip/xc32/v1.42/bin/bin/../../lib/gcc/pic32mx/4.8.3/../../../../pic32mx/lib\libm.a(sitofp.o)
                0x9d00c5c0                sitofp
                0x9d00c5c0                litofp
                0x9d00c5c0                __floatsisf

.text.xPortStartScheduler
                0x9d00c620       0x5c
 .text.xPortStartScheduler
                0x9d00c620       0x5c build/default/debug/_ext/12131622/port.o
                0x9d00c620                xPortStartScheduler

.text.vListInsert
                0x9d00c67c       0x5c
 .text.vListInsert
                0x9d00c67c       0x5c build/default/debug/_ext/1128951024/list.o
                0x9d00c67c                vListInsert

.text.SYS_CLK_Initialize
                0x9d00c6d8       0x58
 .text.SYS_CLK_Initialize
                0x9d00c6d8       0x58 build/default/debug/_ext/639803181/sys_clk_static.o
                0x9d00c6d8                SYS_CLK_Initialize

.text.DRV_SPI_SYS_QUEUE_Dequeue
                0x9d00c730       0x58
 .text.DRV_SPI_SYS_QUEUE_Dequeue
                0x9d00c730       0x58 build/default/debug/_ext/465164171/drv_spi_sys_queue_fifo.o
                0x9d00c730                DRV_SPI_SYS_QUEUE_Dequeue

.text.SYS_DEVCON_SystemUnlock
                0x9d00c788       0x58
 .text.SYS_DEVCON_SystemUnlock
                0x9d00c788       0x58 build/default/debug/_ext/1271179505/sys_devcon.o
                0x9d00c788                SYS_DEVCON_SystemUnlock

.text.SYS_INT_SourceDisable
                0x9d00c7e0       0x58
 .text.SYS_INT_SourceDisable
                0x9d00c7e0       0x58 build/default/debug/_ext/122796885/sys_int_pic32.o
                0x9d00c7e0                SYS_INT_SourceDisable

.text.main_entry
                0x9d00c838       0x54
 .text.main_entry
                0x9d00c838       0x54 c:/program files/microchip/xc32/v1.42/bin/bin/../../lib/gcc/pic32mx/4.8.3/../../../../pic32mx/lib/./proc/32MX795F512L/crt0_mips32r2.o
                0x9d00c86c                __crt0_exit

.text.pxPortInitialiseStack
                0x9d00c88c       0x54
 .text.pxPortInitialiseStack
                0x9d00c88c       0x54 build/default/debug/_ext/12131622/port.o
                0x9d00c88c                pxPortInitialiseStack

.text.vPortIncrementTick
                0x9d00c8e0       0x54
 .text.vPortIncrementTick
                0x9d00c8e0       0x54 build/default/debug/_ext/12131622/port.o
                0x9d00c8e0                vPortIncrementTick

.text.IntHandlerExternalInterruptInstance0
                0x9d00c934       0x50
 .text.IntHandlerExternalInterruptInstance0
                0x9d00c934       0x50 build/default/debug/_ext/1688732426/system_interrupt.o
                0x9d00c934                IntHandlerExternalInterruptInstance0

.text.prvCopyDataFromQueue
                0x9d00c984       0x50
 .text.prvCopyDataFromQueue
                0x9d00c984       0x50 build/default/debug/_ext/1128951024/queue.o

.text.vTaskEnterCritical
                0x9d00c9d4       0x50
 .text.vTaskEnterCritical
                0x9d00c9d4       0x50 build/default/debug/_ext/1128951024/tasks.o
                0x9d00c9d4                vTaskEnterCritical

.rodata         0x9d00ca24       0x4c
 .rodata        0x9d00ca24       0x4c build/default/debug/_ext/1688732426/system_init.o
                0x9d00ca24                sysDevconInit
                0x9d00ca28                drvUsart0InitData

.text.OSAL_SEM_PostISR
                0x9d00ca70       0x4c
 .text.OSAL_SEM_PostISR
                0x9d00ca70       0x4c build/default/debug/_ext/24337685/osal_freertos.o
                0x9d00ca70                OSAL_SEM_PostISR

.rodata         0x9d00cabc       0x48
 .rodata        0x9d00cabc       0x48 build/default/debug/_ext/1688732426/insgps16state_v1.o

.text.SYS_DEVCON_SystemLock
                0x9d00cb04       0x48
 .text.SYS_DEVCON_SystemLock
                0x9d00cb04       0x48 build/default/debug/_ext/1271179505/sys_devcon.o
                0x9d00cb04                SYS_DEVCON_SystemLock

.text._bootstrap_exception_handler
                0x9d00cb4c       0x48
 .text._bootstrap_exception_handler
                0x9d00cb4c       0x48 c:/program files/microchip/xc32/v1.42/bin/bin/../../lib/gcc/pic32mx/4.8.3/../../../../pic32mx/lib\libpic32.a(default-bootstrap-exception-handler.o)
                0x9d00cb4c                _bootstrap_exception_handler

.vector_default
                0x9d00cb94       0x48
 .vector_default
                0x9d00cb94       0x48 c:/program files/microchip/xc32/v1.42/bin/bin/../../lib/gcc/pic32mx/4.8.3/../../../../pic32mx/lib\libpic32.a(defaultinterrupt.o)
                0x9d00cb94                _DefaultInterrupt

.text._general_exception_handler
                0x9d00cbdc       0x44
 .text._general_exception_handler
                0x9d00cbdc       0x44 build/default/debug/_ext/1688732426/system_exceptions.o
                0x9d00cbdc                _general_exception_handler

.text.OSAL_SEM_Pend
                0x9d00cc20       0x44
 .text.OSAL_SEM_Pend
                0x9d00cc20       0x44 build/default/debug/_ext/24337685/osal_freertos.o
                0x9d00cc20                OSAL_SEM_Pend

.text.OSAL_MUTEX_Lock
                0x9d00cc64       0x44
 .text.OSAL_MUTEX_Lock
                0x9d00cc64       0x44 build/default/debug/_ext/24337685/osal_freertos.o
                0x9d00cc64                OSAL_MUTEX_Lock

.text.uxListRemove
                0x9d00cca8       0x44
 .text.uxListRemove
                0x9d00cca8       0x44 build/default/debug/_ext/1128951024/list.o
                0x9d00cca8                uxListRemove

.text           0x9d00ccec       0x44
 .text          0x9d00ccec       0x44 c:/program files/microchip/xc32/v1.42/bin/bin/../../lib/gcc/pic32mx/4.8.3/../../../../pic32mx/lib\pic32_software_reset.o
                0x9d00ccec                __pic32_software_reset

.text.DRV_SPI_SYS_QUEUE_Enqueue
                0x9d00cd30       0x40
 .text.DRV_SPI_SYS_QUEUE_Enqueue
                0x9d00cd30       0x40 build/default/debug/_ext/465164171/drv_spi_sys_queue_fifo.o
                0x9d00cd30                DRV_SPI_SYS_QUEUE_Enqueue

.text.prvIdleTask
                0x9d00cd70       0x40
 .text.prvIdleTask
                0x9d00cd70       0x40 build/default/debug/_ext/1128951024/tasks.o
                0x9d00cd70                prvIdleTask

.text.IntHandlerDrvUsartInstance0
                0x9d00cdb0       0x3c
 .text.IntHandlerDrvUsartInstance0
                0x9d00cdb0       0x3c build/default/debug/_ext/1688732426/system_interrupt.o
                0x9d00cdb0                IntHandlerDrvUsartInstance0

.text._DRV_SPI_RootDriverDeinitialization
                0x9d00cdec       0x3c
 .text._DRV_SPI_RootDriverDeinitialization
                0x9d00cdec       0x3c build/default/debug/_ext/568870469/drv_spi.o

.text.OSAL_MUTEX_Create
                0x9d00ce28       0x3c
 .text.OSAL_MUTEX_Create
                0x9d00ce28       0x3c build/default/debug/_ext/24337685/osal_freertos.o
                0x9d00ce28                OSAL_MUTEX_Create

.text.uxPortSetInterruptMaskFromISR
                0x9d00ce64       0x3c
 .text.uxPortSetInterruptMaskFromISR
                0x9d00ce64       0x3c build/default/debug/_ext/12131622/port.o
                0x9d00ce64                uxPortSetInterruptMaskFromISR

.text.prvResetNextTaskUnblockTime
                0x9d00cea0       0x38
 .text.prvResetNextTaskUnblockTime
                0x9d00cea0       0x38 build/default/debug/_ext/1128951024/tasks.o
                0x9d00cea0                prvResetNextTaskUnblockTime

.text.DRV_SPI_SYS_QUEUE_Deinitialize
                0x9d00ced8       0x34
 .text.DRV_SPI_SYS_QUEUE_Deinitialize
                0x9d00ced8       0x34 build/default/debug/_ext/465164171/drv_spi_sys_queue_fifo.o
                0x9d00ced8                DRV_SPI_SYS_QUEUE_Deinitialize

.text.SYS_INT_ExternalInterruptTriggerSet
                0x9d00cf0c       0x34
 .text.SYS_INT_ExternalInterruptTriggerSet
                0x9d00cf0c       0x34 build/default/debug/_ext/122796885/sys_int_pic32.o
                0x9d00cf0c                SYS_INT_ExternalInterruptTriggerSet

.text.xQueueCreateCountingSemaphore
                0x9d00cf40       0x34
 .text.xQueueCreateCountingSemaphore
                0x9d00cf40       0x34 build/default/debug/_ext/1128951024/queue.o
                0x9d00cf40                xQueueCreateCountingSemaphore

.text.OSAL_SEM_Delete
                0x9d00cf74       0x30
 .text.OSAL_SEM_Delete
                0x9d00cf74       0x30 build/default/debug/_ext/24337685/osal_freertos.o
                0x9d00cf74                OSAL_SEM_Delete

.text.OSAL_SEM_Post
                0x9d00cfa4       0x30
 .text.OSAL_SEM_Post
                0x9d00cfa4       0x30 build/default/debug/_ext/24337685/osal_freertos.o
                0x9d00cfa4                OSAL_SEM_Post

.text.OSAL_MUTEX_Unlock
                0x9d00cfd4       0x30
 .text.OSAL_MUTEX_Unlock
                0x9d00cfd4       0x30 build/default/debug/_ext/24337685/osal_freertos.o
                0x9d00cfd4                OSAL_MUTEX_Unlock

.text.vListInsertEnd
                0x9d00d004       0x30
 .text.vListInsertEnd
                0x9d00d004       0x30 build/default/debug/_ext/1128951024/list.o
                0x9d00d004                vListInsertEnd

.text.prvDeleteTCB
                0x9d00d034       0x30
 .text.prvDeleteTCB
                0x9d00d034       0x30 build/default/debug/_ext/1128951024/tasks.o
                0x9d00d034                prvDeleteTCB

.text.vTaskMyDelay
                0x9d00d064       0x2c
 .text.vTaskMyDelay
                0x9d00d064       0x2c build/default/debug/_ext/1688732426/system_tasks.o

.text.vApplicationStackOverflowHook
                0x9d00d090       0x2c
 .text.vApplicationStackOverflowHook
                0x9d00d090       0x2c build/default/debug/_ext/1688732426/rtos_hooks.o
                0x9d00d090                vApplicationStackOverflowHook

.text.vApplicationMallocFailedHook
                0x9d00d0bc       0x2c
 .text.vApplicationMallocFailedHook
                0x9d00d0bc       0x2c build/default/debug/_ext/1688732426/rtos_hooks.o
                0x9d00d0bc                vApplicationMallocFailedHook

.text.prvTaskExitError
                0x9d00d0e8       0x2c
 .text.prvTaskExitError
                0x9d00d0e8       0x2c build/default/debug/_ext/12131622/port.o

.text.strchr    0x9d00d114       0x2c
 .text.strchr   0x9d00d114       0x2c c:/program files/microchip/xc32/v1.42/bin/bin/../../lib/gcc/pic32mx/4.8.3/../../../../pic32mx/lib\libc.a(strchr.o)
                0x9d00d114                strchr

.text._SYS_Tasks
                0x9d00d140       0x28
 .text._SYS_Tasks
                0x9d00d140       0x28 build/default/debug/_ext/1688732426/system_tasks.o

.text.APP_Initialize
                0x9d00d168       0x28
 .text.APP_Initialize
                0x9d00d168       0x28 build/default/debug/_ext/1360937237/app.o
                0x9d00d168                APP_Initialize

.text.BSP_Initialize
                0x9d00d190       0x28
 .text.BSP_Initialize
                0x9d00d190       0x28 build/default/debug/_ext/1890346972/bsp_sys_init.o
                0x9d00d190                BSP_Initialize

.text._DRV_USART_DriverHandleValidate
                0x9d00d1b8       0x28
 .text._DRV_USART_DriverHandleValidate
                0x9d00d1b8       0x28 build/default/debug/_ext/260586732/drv_usart.o
                0x9d00d1b8                _DRV_USART_DriverHandleValidate

.text.pvTaskIncrementMutexHeldCount
                0x9d00d1e0       0x28
 .text.pvTaskIncrementMutexHeldCount
                0x9d00d1e0       0x28 build/default/debug/_ext/1128951024/tasks.o
                0x9d00d1e0                pvTaskIncrementMutexHeldCount

.text.FullCorrection
                0x9d00d208       0x20
 .text.FullCorrection
                0x9d00d208       0x20 build/default/debug/_ext/1688732426/insgps16state_v1.o
                0x9d00d208                FullCorrection

.text.IntHandlerSPIInstance0
                0x9d00d228       0x20
 .text.IntHandlerSPIInstance0
                0x9d00d228       0x20 build/default/debug/_ext/1688732426/system_interrupt.o
                0x9d00d228                IntHandlerSPIInstance0

.text.main      0x9d00d248       0x20
 .text.main     0x9d00d248       0x20 build/default/debug/_ext/1360937237/main.o
                0x9d00d248                main

.text.DRV_SPI_Tasks
                0x9d00d268       0x20
 .text.DRV_SPI_Tasks
                0x9d00d268       0x20 build/default/debug/_ext/568870469/drv_spi.o
                0x9d00d268                DRV_SPI_Tasks

.text.vListInitialise
                0x9d00d288       0x20
 .text.vListInitialise
                0x9d00d288       0x20 build/default/debug/_ext/1128951024/list.o
                0x9d00d288                vListInitialise

.text.vPortClearInterruptMaskFromISR
                0x9d00d2a8       0x1c
 .text.vPortClearInterruptMaskFromISR
                0x9d00d2a8       0x1c build/default/debug/_ext/12131622/port.o
                0x9d00d2a8                vPortClearInterruptMaskFromISR

.text.vQueueDelete
                0x9d00d2c4       0x1c
 .text.vQueueDelete
                0x9d00d2c4       0x1c build/default/debug/_ext/1128951024/queue.o
                0x9d00d2c4                vQueueDelete

.text.strtof    0x9d00d2e0       0x1c
 .text.strtof   0x9d00d2e0       0x1c c:/program files/microchip/xc32/v1.42/bin/bin/../../lib/gcc/pic32mx/4.8.3/../../../../pic32mx/lib\libc.a(strtof.o)
                0x9d00d2e0                strtof

.text._APP_Tasks
                0x9d00d2fc       0x18
 .text._APP_Tasks
                0x9d00d2fc       0x18 build/default/debug/_ext/1688732426/system_tasks.o

.text.SYS_DEVCON_JTAGEnable
                0x9d00d314       0x18
 .text.SYS_DEVCON_JTAGEnable
                0x9d00d314       0x18 build/default/debug/_ext/1271179505/sys_devcon.o
                0x9d00d314                SYS_DEVCON_JTAGEnable

.text.SYS_INT_Initialize
                0x9d00d32c       0x18
 .text.SYS_INT_Initialize
                0x9d00d32c       0x18 build/default/debug/_ext/122796885/sys_int_pic32.o
                0x9d00d32c                SYS_INT_Initialize

.text           0x9d00d344       0x18
 .text          0x9d00d344       0x18 c:/program files/microchip/xc32/v1.42/bin/bin/../../lib/gcc/pic32mx/4.8.3/../../../../pic32mx/lib\libpic32.a(default-nmi-handler.o)
                0x9d00d344                _nmi_handler

.rodata         0x9d00d35c       0x18
 .rodata        0x9d00d35c       0x18 c:/program files/microchip/xc32/v1.42/bin/bin/../../lib/gcc/pic32mx/4.8.3/../../../../pic32mx/lib\libm.a(__strtof.o)

.text.SYS_DEVCON_Initialize
                0x9d00d374       0x14
 .text.SYS_DEVCON_Initialize
                0x9d00d374       0x14 build/default/debug/_ext/1271179505/sys_devcon.o
                0x9d00d374                SYS_DEVCON_Initialize

.text.vTaskSuspendAll
                0x9d00d388       0x14
 .text.vTaskSuspendAll
                0x9d00d388       0x14 build/default/debug/_ext/1128951024/tasks.o
                0x9d00d388                vTaskSuspendAll

.text.vTaskSetTimeOutState
                0x9d00d39c       0x14
 .text.vTaskSetTimeOutState
                0x9d00d39c       0x14 build/default/debug/_ext/1128951024/tasks.o
                0x9d00d39c                vTaskSetTimeOutState

.text.negsf2    0x9d00d3b0       0x14
 .text.negsf2   0x9d00d3b0       0x14 c:/program files/microchip/xc32/v1.42/bin/bin/../../lib/gcc/pic32mx/4.8.3/../../../../pic32mx/lib\libm.a(negsf2.o)
                0x9d00d3b0                __negsf2

.text.vTaskMissedYield
                0x9d00d3c4       0x10
 .text.vTaskMissedYield
                0x9d00d3c4       0x10 build/default/debug/_ext/1128951024/tasks.o
                0x9d00d3c4                vTaskMissedYield

.text.__exception_handler_break
                0x9d00d3d4        0xc
 .text.__exception_handler_break
                0x9d00d3d4        0xc c:/program files/microchip/xc32/v1.42/bin/bin/../../lib/gcc/pic32mx/4.8.3/../../../../pic32mx/lib\software-debug-break.o
                0x9d00d3d4                __exception_handler_break

.text.SYS_CLK_SystemFrequencyGet
                0x9d00d3e0        0xc
 .text.SYS_CLK_SystemFrequencyGet
                0x9d00d3e0        0xc build/default/debug/_ext/639803181/sys_clk_static.o
                0x9d00d3e0                SYS_CLK_SystemFrequencyGet

.text.SYS_CLK_PeripheralFrequencyGet
                0x9d00d3ec        0xc
 .text.SYS_CLK_PeripheralFrequencyGet
                0x9d00d3ec        0xc build/default/debug/_ext/639803181/sys_clk_static.o
                0x9d00d3ec                SYS_CLK_PeripheralFrequencyGet

.text.DRV_SPI_SYS_QUEUE_IsEmpty
                0x9d00d3f8        0xc
 .text.DRV_SPI_SYS_QUEUE_IsEmpty
                0x9d00d3f8        0xc build/default/debug/_ext/465164171/drv_spi_sys_queue_fifo.o
                0x9d00d3f8                DRV_SPI_SYS_QUEUE_IsEmpty

.text.xTaskGetTickCount
                0x9d00d404        0xc
 .text.xTaskGetTickCount
                0x9d00d404        0xc build/default/debug/_ext/1128951024/tasks.o
                0x9d00d404                xTaskGetTickCount

.rodata         0x9d00d410        0x8
 .rodata        0x9d00d410        0x8 build/default/debug/_ext/1360937237/app.o

.text.SYS_DEVCON_Tasks
                0x9d00d418        0x8
 .text.SYS_DEVCON_Tasks
                0x9d00d418        0x8 build/default/debug/_ext/1271179505/sys_devcon.o
                0x9d00d418                SYS_DEVCON_Tasks

.text.vPortFree
                0x9d00d420        0x8
 .text.vPortFree
                0x9d00d420        0x8 build/default/debug/_ext/1856876499/heap_1.o
                0x9d00d420                vPortFree

.text.vListInitialiseItem
                0x9d00d428        0x8
 .text.vListInitialiseItem
                0x9d00d428        0x8 build/default/debug/_ext/1128951024/list.o
                0x9d00d428                vListInitialiseItem

.rodata         0x9d00d430        0x8
 .rodata        0x9d00d430        0x8 build/default/debug/_ext/1128951024/tasks.o

.text._on_reset
                0x9d00d438        0x8
 .text._on_reset
                0x9d00d438        0x8 c:/program files/microchip/xc32/v1.42/bin/bin/../../lib/gcc/pic32mx/4.8.3/../../../../pic32mx/lib\libpic32.a(default-on-reset.o)
                0x9d00d438                _on_reset

.text._on_bootstrap
                0x9d00d440        0x8
 .text._on_bootstrap
                0x9d00d440        0x8 c:/program files/microchip/xc32/v1.42/bin/bin/../../lib/gcc/pic32mx/4.8.3/../../../../pic32mx/lib\libpic32.a(default-on-bootstrap.o)
                0x9d00d440                _on_bootstrap

.rodata         0x9d00d448        0x4
 .rodata        0x9d00d448        0x4 build/default/debug/_ext/12131622/port.o
                0x9d00d448                xISRStackTop
